///////////////////////////////////////////////////////////////////////////////
//                                                                            /
// IAR C/C++ Compiler V7.51A/W32 for 8051               06/Jan/2013  14:27:33 /
// Copyright 2004-2009 IAR Systems AB.                                        /
//                                                                            /
//    Core               =  plain                                             /
//    Code model         =  banked                                            /
//    Data model         =  large                                             /
//    Calling convention =  xdata reentrant                                   /
//    Constant location  =  data_rom                                          /
//    Dptr setup         =  1,16                                              /
//    Source file        =  C:\Texas Instruments\ZStack-CC2530-2.3.0-1.4.0\Pr /
//                          ojects\zstack\Samples\second_uart_App\Source\Endd /
//                          evice.c                                           /
//    Command line       =  -f "C:\Texas Instruments\ZStack-CC2530-2.3.0-1.4. /
//                          0\Projects\zstack\Samples\second_uart_App\CC2530D /
//                          B\..\..\..\Tools\CC2530DB\f8wEndev.cfg"           /
//                          (-DCPU32MHZ -DROOT=__near_func -DBLINK_LEDS) -f   /
//                          "C:\Texas Instruments\ZStack-CC2530-2.3.0-1.4.0\P /
//                          rojects\zstack\Samples\second_uart_App\CC2530DB\. /
//                          .\..\..\Tools\CC2530DB\f8wConfig.cfg"             /
//                          (-DSECURE=0 -DZG_SECURE_DYNAMIC=0 -DREFLECTOR     /
//                          -DDEFAULT_CHANLIST=0x00000800                     /
//                          -DZDAPP_CONFIG_PAN_ID=0x1234                      /
//                          -DNWK_START_DELAY=100 -DEXTENDED_JOINING_RANDOM_M /
//                          ASK=0x007F -DBEACON_REQUEST_DELAY=100             /
//                          -DBEACON_REQ_DELAY_MASK=0x00FF                    /
//                          -DROUTE_EXPIRY_TIME=30 -DAPSC_ACK_WAIT_DURATION_P /
//                          OLLED=3000 -DNWK_INDIRECT_MSG_TIMEOUT=7           /
//                          -DMAX_RREQ_ENTRIES=8 -DAPSC_MAX_FRAME_RETRIES=3   /
//                          -DNWK_MAX_DATA_RETRIES=2                          /
//                          -DMAX_POLL_FAILURE_RETRIES=2 -DMAX_BCAST=9        /
//                          -DAPS_MAX_GROUPS=16 -DMAX_RTG_ENTRIES=40          /
//                          -DNWK_MAX_BINDING_ENTRIES=4                       /
//                          -DMAX_BINDING_CLUSTER_IDS=4                       /
//                          "-DDEFAULT_KEY={0x01, 0x03, 0x05, 0x07, 0x09,     /
//                          0x0B, 0x0D, 0x0F, 0x00, 0x02, 0x04, 0x06, 0x08,   /
//                          0x0A, 0x0C, 0x0D}" -DMAC_MAX_FRAME_SIZE=116       /
//                          "-DCONST=const __code" -DGENERIC=__generic        /
//                          -DRFD_RCVC_ALWAYS_ON=FALSE -DPOLL_RATE=1000       /
//                          -DQUEUED_POLL_RATE=100 -DRESPONSE_POLL_RATE=100)  /
//                          -DREJOIN_POLL_RATE=440 "C:\Texas                  /
//                          Instruments\ZStack-CC2530-2.3.0-1.4.0\Projects\zs /
//                          tack\Samples\second_uart_App\Source\Enddevice.c"  /
//                          -D NWK_AUTO_POLL -D ZTOOL_P1 -D MT_TASK -D        /
//                          MT_SYS_FUNC -D MT_ZDO_FUNC -D                     /
//                          LCD_SUPPORTED=DEBUG -D xPOWER_SAVING -D           /
//                          HAL_UART=TRUE -lC "C:\Texas                       /
//                          Instruments\ZStack-CC2530-2.3.0-1.4.0\Projects\zs /
//                          tack\Samples\second_uart_App\CC2530DB\EndDeviceEB /
//                          \List\" -lA "C:\Texas Instruments\ZStack-CC2530-2 /
//                          .3.0-1.4.0\Projects\zstack\Samples\second_uart_Ap /
//                          p\CC2530DB\EndDeviceEB\List\" --diag_suppress     /
//                          Pe001,Pa010 -o "C:\Texas                          /
//                          Instruments\ZStack-CC2530-2.3.0-1.4.0\Projects\zs /
//                          tack\Samples\second_uart_App\CC2530DB\EndDeviceEB /
//                          \Obj\" -e --require_prototypes --debug            /
//                          --core=plain --dptr=16,1 --data_model=large       /
//                          --code_model=banked --calling_convention=xdata_re /
//                          entrant --place_constants=data_rom                /
//                          --nr_virtual_regs 16 -I "C:\Texas                 /
//                          Instruments\ZStack-CC2530-2.3.0-1.4.0\Projects\zs /
//                          tack\Samples\second_uart_App\CC2530DB\" -I        /
//                          "C:\Texas Instruments\ZStack-CC2530-2.3.0-1.4.0\P /
//                          rojects\zstack\Samples\second_uart_App\CC2530DB\. /
//                          .\SOURCE\" -I "C:\Texas                           /
//                          Instruments\ZStack-CC2530-2.3.0-1.4.0\Projects\zs /
//                          tack\Samples\second_uart_App\CC2530DB\..\..\..\ZM /
//                          AIN\TI2530DB\" -I "C:\Texas                       /
//                          Instruments\ZStack-CC2530-2.3.0-1.4.0\Projects\zs /
//                          tack\Samples\second_uart_App\CC2530DB\..\..\..\.. /
//                          \..\COMPONENTS\MT\" -I "C:\Texas                  /
//                          Instruments\ZStack-CC2530-2.3.0-1.4.0\Projects\zs /
//                          tack\Samples\second_uart_App\CC2530DB\..\..\..\.. /
//                          \..\COMPONENTS\HAL\INCLUDE\" -I "C:\Texas         /
//                          Instruments\ZStack-CC2530-2.3.0-1.4.0\Projects\zs /
//                          tack\Samples\second_uart_App\CC2530DB\..\..\..\.. /
//                          \..\COMPONENTS\HAL\TARGET\CC2530EB\" -I           /
//                          "C:\Texas Instruments\ZStack-CC2530-2.3.0-1.4.0\P /
//                          rojects\zstack\Samples\second_uart_App\CC2530DB\. /
//                          .\..\..\..\..\COMPONENTS\OSAL\MCU\CCSOC\" -I      /
//                          "C:\Texas Instruments\ZStack-CC2530-2.3.0-1.4.0\P /
//                          rojects\zstack\Samples\second_uart_App\CC2530DB\. /
//                          .\..\..\..\..\COMPONENTS\OSAL\INCLUDE\" -I        /
//                          "C:\Texas Instruments\ZStack-CC2530-2.3.0-1.4.0\P /
//                          rojects\zstack\Samples\second_uart_App\CC2530DB\. /
//                          .\..\..\..\..\COMPONENTS\STACK\AF\" -I "C:\Texas  /
//                          Instruments\ZStack-CC2530-2.3.0-1.4.0\Projects\zs /
//                          tack\Samples\second_uart_App\CC2530DB\..\..\..\.. /
//                          \..\COMPONENTS\STACK\NWK\" -I "C:\Texas           /
//                          Instruments\ZStack-CC2530-2.3.0-1.4.0\Projects\zs /
//                          tack\Samples\second_uart_App\CC2530DB\..\..\..\.. /
//                          \..\COMPONENTS\STACK\SEC\" -I "C:\Texas           /
//                          Instruments\ZStack-CC2530-2.3.0-1.4.0\Projects\zs /
//                          tack\Samples\second_uart_App\CC2530DB\..\..\..\.. /
//                          \..\COMPONENTS\STACK\SAPI\" -I "C:\Texas          /
//                          Instruments\ZStack-CC2530-2.3.0-1.4.0\Projects\zs /
//                          tack\Samples\second_uart_App\CC2530DB\..\..\..\.. /
//                          \..\COMPONENTS\STACK\SYS\" -I "C:\Texas           /
//                          Instruments\ZStack-CC2530-2.3.0-1.4.0\Projects\zs /
//                          tack\Samples\second_uart_App\CC2530DB\..\..\..\.. /
//                          \..\COMPONENTS\STACK\ZDO\" -I "C:\Texas           /
//                          Instruments\ZStack-CC2530-2.3.0-1.4.0\Projects\zs /
//                          tack\Samples\second_uart_App\CC2530DB\..\..\..\.. /
//                          \..\COMPONENTS\ZMAC\F8W\" -I "C:\Texas            /
//                          Instruments\ZStack-CC2530-2.3.0-1.4.0\Projects\zs /
//                          tack\Samples\second_uart_App\CC2530DB\..\..\..\.. /
//                          \..\COMPONENTS\ZMAC\" -I "C:\Texas                /
//                          Instruments\ZStack-CC2530-2.3.0-1.4.0\Projects\zs /
//                          tack\Samples\second_uart_App\CC2530DB\..\..\..\.. /
//                          \..\COMPONENTS\SERVICES\SADDR\" -I "C:\Texas      /
//                          Instruments\ZStack-CC2530-2.3.0-1.4.0\Projects\zs /
//                          tack\Samples\second_uart_App\CC2530DB\..\..\..\.. /
//                          \..\COMPONENTS\SERVICES\SDATA\" -I "C:\Texas      /
//                          Instruments\ZStack-CC2530-2.3.0-1.4.0\Projects\zs /
//                          tack\Samples\second_uart_App\CC2530DB\..\..\..\.. /
//                          \..\COMPONENTS\MAC\INCLUDE\" -I "C:\Texas         /
//                          Instruments\ZStack-CC2530-2.3.0-1.4.0\Projects\zs /
//                          tack\Samples\second_uart_App\CC2530DB\..\..\..\.. /
//                          \..\COMPONENTS\MAC\HIGH_LEVEL\" -I "C:\Texas      /
//                          Instruments\ZStack-CC2530-2.3.0-1.4.0\Projects\zs /
//                          tack\Samples\second_uart_App\CC2530DB\..\..\..\.. /
//                          \..\COMPONENTS\MAC\LOW_LEVEL\srf04\" -I           /
//                          "C:\Texas Instruments\ZStack-CC2530-2.3.0-1.4.0\P /
//                          rojects\zstack\Samples\second_uart_App\CC2530DB\. /
//                          .\..\..\..\..\COMPONENTS\MAC\LOW_LEVEL\srf04\SING /
//                          LE_CHIP\" -I "C:\Program Files\IAR                /
//                          Systems\Embedded Workbench 5.3\8051\INC\" -I      /
//                          "C:\Program Files\IAR Systems\Embedded Workbench  /
//                          5.3\8051\INC\CLIB\" -Ohz                          /
//    List file          =  C:\Texas Instruments\ZStack-CC2530-2.3.0-1.4.0\Pr /
//                          ojects\zstack\Samples\second_uart_App\CC2530DB\En /
//                          dDeviceEB\List\Enddevice.s51                      /
//                                                                            /
//                                                                            /
///////////////////////////////////////////////////////////////////////////////

        NAME Enddevice

        RTMODEL "__calling_convention", "xdata_reentrant"
        RTMODEL "__code_model", "banked"
        RTMODEL "__core", "plain"
        RTMODEL "__data_model", "large"
        RTMODEL "__dptr_size", "16"
        RTMODEL "__extended_stack", "disabled"
        RTMODEL "__location_for_constants", "data"
        RTMODEL "__number_of_dptrs", "1"
        RTMODEL "__rt_version", "1"

        RSEG DOVERLAY:DATA:NOROOT(0)
        RSEG IOVERLAY:IDATA:NOROOT(0)
        RSEG ISTACK:IDATA:NOROOT(0)
        RSEG PSTACK:XDATA:NOROOT(0)
        RSEG XSTACK:XDATA:NOROOT(0)

        EXTERN ??GenericApp_SendTheMessage?relay
        EXTERN ?ALLOC_XSTACK8
        EXTERN ?BANKED_ENTER_XDATA
        EXTERN ?BANKED_LEAVE_XDATA
        EXTERN ?BDISPATCH
        EXTERN ?BRET
        EXTERN ?DEALLOC_XSTACK8
        EXTERN ?MOVE_LONG8_XDATA_XDATA
        EXTERN ?PUSH_XSTACK_I_ONE
        EXTERN ?PUSH_XSTACK_I_TWO
        EXTERN ?V0
        EXTERN ?XSP
        EXTERN ?XSTACK_DISP0_8
        EXTERN __INIT_XDATA_Z

        PUBLIC ??GenericApp_Init?relay
        FUNCTION ??GenericApp_Init?relay,0203H
        PUBLIC ??GenericApp_ProcessEvent?relay
        FUNCTION ??GenericApp_ProcessEvent?relay,0203H
        PUBLIC ??GenericApp_SendTheMessage?relay
        FUNCTION ??GenericApp_SendTheMessage?relay,0203H
        PUBLIC GenericApp_ClusterList
        PUBLIC GenericApp_Init
        FUNCTION GenericApp_Init,021203H
        ARGFRAME XSTACK, 0, STACK
        LOCFRAME ISTACK, 2, STACK
        PUBLIC GenericApp_NwkState
        PUBLIC GenericApp_ProcessEvent
        FUNCTION GenericApp_ProcessEvent,021203H
        ARGFRAME XSTACK, 0, STACK
        LOCFRAME XSTACK, 12, STACK
        PUBLIC GenericApp_SendTheMessage
        FUNCTION GenericApp_SendTheMessage,021203H
        ARGFRAME XSTACK, 12, STACK
        ARGFRAME IOVERLAY, 0, STATIC
        ARGFRAME DOVERLAY, 0, STATIC
        LOCFRAME ISTACK, 2, STACK
        LOCFRAME XSTACK, 55, STACK
        PUBLIC GenericApp_SimpleDesc
        PUBLIC GenericApp_TaskID
        PUBLIC GenericApp_TransID
        PUBLIC GenericApp_epDesc
        
        CFI Names cfiNames0
        CFI StackFrame CFA_SP SP IDATA
        CFI StackFrame CFA_PSP16 PSP16 XDATA
        CFI StackFrame CFA_XSP16 XSP16 XDATA
        CFI StaticOverlayFrame CFA_IOVERLAY IOVERLAY
        CFI StaticOverlayFrame CFA_DOVERLAY DOVERLAY
        CFI Resource `PSW.CY`:1, `B.BR0`:1, `B.BR1`:1, `B.BR2`:1, `B.BR3`:1
        CFI Resource `B.BR4`:1, `B.BR5`:1, `B.BR6`:1, `B.BR7`:1, `VB.BR8`:1
        CFI Resource `VB.BR9`:1, `VB.BR10`:1, `VB.BR11`:1, `VB.BR12`:1
        CFI Resource `VB.BR13`:1, `VB.BR14`:1, `VB.BR15`:1, VB:8, B:8, A:8
        CFI Resource PSW:8, DPL0:8, DPH0:8, R0:8, R1:8, R2:8, R3:8, R4:8, R5:8
        CFI Resource R6:8, R7:8, V0:8, V1:8, V2:8, V3:8, V4:8, V5:8, V6:8, V7:8
        CFI Resource V8:8, V9:8, V10:8, V11:8, V12:8, V13:8, V14:8, V15:8, SP:8
        CFI Resource PSPH:8, PSPL:8, PSP16:16, XSPH:8, XSPL:8, XSP16:16
        CFI VirtualResource ?RET:24
        CFI Resource ?BRET_EXT:8
        CFI VirtualResource ?RET_HIGH:8, ?RET_LOW:8
        CFI ResourceParts PSP16 PSPH, PSPL
        CFI ResourceParts XSP16 XSPH, XSPL
        CFI ResourceParts ?RET ?BRET_EXT, ?RET_HIGH, ?RET_LOW
        CFI EndNames cfiNames0
        
        CFI Common cfiCommon0 Using cfiNames0
        CFI CodeAlign 1
        CFI DataAlign -1
        CFI ReturnAddress ?RET CODE
        CFI CFA_DOVERLAY Used
        CFI CFA_IOVERLAY Used
        CFI CFA_SP SP+-3
        CFI CFA_PSP16 PSP16+0
        CFI CFA_XSP16 XSP16+0
        CFI `PSW.CY` SameValue
        CFI `B.BR0` SameValue
        CFI `B.BR1` SameValue
        CFI `B.BR2` SameValue
        CFI `B.BR3` SameValue
        CFI `B.BR4` SameValue
        CFI `B.BR5` SameValue
        CFI `B.BR6` SameValue
        CFI `B.BR7` SameValue
        CFI `VB.BR8` SameValue
        CFI `VB.BR9` SameValue
        CFI `VB.BR10` SameValue
        CFI `VB.BR11` SameValue
        CFI `VB.BR12` SameValue
        CFI `VB.BR13` SameValue
        CFI `VB.BR14` SameValue
        CFI `VB.BR15` SameValue
        CFI VB SameValue
        CFI B Undefined
        CFI A Undefined
        CFI PSW SameValue
        CFI DPL0 SameValue
        CFI DPH0 SameValue
        CFI R0 Undefined
        CFI R1 Undefined
        CFI R2 Undefined
        CFI R3 Undefined
        CFI R4 Undefined
        CFI R5 Undefined
        CFI R6 SameValue
        CFI R7 SameValue
        CFI V0 SameValue
        CFI V1 SameValue
        CFI V2 SameValue
        CFI V3 SameValue
        CFI V4 SameValue
        CFI V5 SameValue
        CFI V6 SameValue
        CFI V7 SameValue
        CFI V8 SameValue
        CFI V9 SameValue
        CFI V10 SameValue
        CFI V11 SameValue
        CFI V12 SameValue
        CFI V13 SameValue
        CFI V14 SameValue
        CFI V15 SameValue
        CFI PSPH Undefined
        CFI PSPL Undefined
        CFI XSPH Undefined
        CFI XSPL Undefined
        CFI ?RET Concat
        CFI ?BRET_EXT Frame(CFA_SP, 3)
        CFI ?RET_HIGH Frame(CFA_SP, 2)
        CFI ?RET_LOW Frame(CFA_SP, 1)
        CFI EndCommon cfiCommon0
        
afRegister          SYMBOL "afRegister"
osal_start_timerEx  SYMBOL "osal_start_timerEx"
osal_msg_receive    SYMBOL "osal_msg_receive"
HalLedSet           SYMBOL "HalLedSet"
osal_msg_deallocate SYMBOL "osal_msg_deallocate"
osal_strlen         SYMBOL "osal_strlen"
AF_DataRequest      SYMBOL "AF_DataRequest"
??AF_DataRequest?relay SYMBOL "?relay", AF_DataRequest
??HalLedSet?relay   SYMBOL "?relay", HalLedSet
??afRegister?relay  SYMBOL "?relay", afRegister
??osal_msg_deallocate?relay SYMBOL "?relay", osal_msg_deallocate
??osal_msg_receive?relay SYMBOL "?relay", osal_msg_receive
??osal_start_timerEx?relay SYMBOL "?relay", osal_start_timerEx
??osal_strlen?relay SYMBOL "?relay", osal_strlen
GenericApp_Init     SYMBOL "GenericApp_Init"
??GenericApp_Init?relay SYMBOL "?relay", GenericApp_Init
GenericApp_ProcessEvent SYMBOL "GenericApp_ProcessEvent"
??GenericApp_ProcessEvent?relay SYMBOL "?relay", GenericApp_ProcessEvent
GenericApp_SendTheMessage SYMBOL "GenericApp_SendTheMessage"
??GenericApp_SendTheMessage?relay SYMBOL "?relay", GenericApp_SendTheMessage

        EXTERN afRegister
        FUNCTION afRegister,0202H
        ARGFRAME ISTACK, 2, STACK
        ARGFRAME PSTACK, 0, STACK
        ARGFRAME XSTACK, 0, STACK
        ARGFRAME IOVERLAY, 0, STATIC
        ARGFRAME DOVERLAY, 0, STATIC
        EXTERN osal_start_timerEx
        FUNCTION osal_start_timerEx,0202H
        ARGFRAME ISTACK, 2, STACK
        ARGFRAME PSTACK, 0, STACK
        ARGFRAME XSTACK, 12, STACK
        ARGFRAME IOVERLAY, 0, STATIC
        ARGFRAME DOVERLAY, 0, STATIC
        EXTERN osal_msg_receive
        FUNCTION osal_msg_receive,0202H
        ARGFRAME ISTACK, 0, STACK
        ARGFRAME PSTACK, 0, STACK
        ARGFRAME XSTACK, 12, STACK
        ARGFRAME IOVERLAY, 0, STATIC
        ARGFRAME DOVERLAY, 0, STATIC
        EXTERN HalLedSet
        FUNCTION HalLedSet,0202H
        ARGFRAME ISTACK, 0, STACK
        ARGFRAME PSTACK, 0, STACK
        ARGFRAME XSTACK, 12, STACK
        ARGFRAME IOVERLAY, 0, STATIC
        ARGFRAME DOVERLAY, 0, STATIC
        EXTERN osal_msg_deallocate
        FUNCTION osal_msg_deallocate,0202H
        ARGFRAME ISTACK, 0, STACK
        ARGFRAME PSTACK, 0, STACK
        ARGFRAME XSTACK, 12, STACK
        ARGFRAME IOVERLAY, 0, STATIC
        ARGFRAME DOVERLAY, 0, STATIC
        EXTERN osal_strlen
        FUNCTION osal_strlen,0202H
        ARGFRAME ISTACK, 0, STACK
        ARGFRAME PSTACK, 0, STACK
        ARGFRAME XSTACK, 51, STACK
        ARGFRAME IOVERLAY, 0, STATIC
        ARGFRAME DOVERLAY, 0, STATIC
        EXTERN AF_DataRequest
        FUNCTION AF_DataRequest,0202H
        ARGFRAME ISTACK, 0, STACK
        ARGFRAME PSTACK, 0, STACK
        ARGFRAME XSTACK, 55, STACK
        ARGFRAME IOVERLAY, 0, STATIC
        ARGFRAME DOVERLAY, 0, STATIC
        EXTERN ??AF_DataRequest?relay
        FUNCTION ??AF_DataRequest?relay,00H
        EXTERN ??HalLedSet?relay
        FUNCTION ??HalLedSet?relay,00H
        EXTERN ??afRegister?relay
        FUNCTION ??afRegister?relay,00H
        EXTERN ??osal_msg_deallocate?relay
        FUNCTION ??osal_msg_deallocate?relay,00H
        EXTERN ??osal_msg_receive?relay
        FUNCTION ??osal_msg_receive?relay,00H
        EXTERN ??osal_start_timerEx?relay
        FUNCTION ??osal_start_timerEx?relay,00H
        EXTERN ??osal_strlen?relay
        FUNCTION ??osal_strlen?relay,00H

// C:\Texas Instruments\ZStack-CC2530-2.3.0-1.4.0\Projects\zstack\Samples\second_uart_App\Source\Enddevice.c
//    1 #include "OSAL.h"
//    2 #include "AF.h"
//    3 #include "ZDApp.h"
//    4 #include "ZDObject.h"
//    5 #include "ZDProfile.h"
//    6 
//    7 #include "Coordinator.h"
//    8 #include "DebugTrace.h"
//    9 
//   10 #if !defined( WIN32 )
//   11   #include "OnBoard.h"
//   12 #endif
//   13 
//   14 /* HAL */
//   15 #include "hal_lcd.h"
//   16 #include "hal_led.h"
//   17 #include "hal_key.h"
//   18 #include "hal_uart.h"
//   19 // This list should be filled with Application specific Cluster IDs.

        RSEG XDATA_ROM_C:CONST:REORDER:NOROOT(0)
        DATA
//   20 const cId_t GenericApp_ClusterList[GENERICAPP_MAX_CLUSTERS] =
GenericApp_ClusterList:
        DW 1
//   21 {
//   22   GENERICAPP_CLUSTERID
//   23 };
//   24 /*
//   25  简单描述符的结构体  用于描述一个zigbee的设备节点；
//   26 typedef struct
//   27 {
//   28   byte          EndPoint;
//   29   uint16        AppProfId;
//   30   uint16        AppDeviceId;
//   31   byte          AppDevVer:4;
//   32   byte          Reserved:4;             // AF_V1_SUPPORT uses for AppFlags:4.
//   33   byte          AppNumInClusters;
//   34   cId_t         *pAppInClusterList;
//   35   byte          AppNumOutClusters;
//   36   cId_t         *pAppOutClusterList;
//   37 } SimpleDescriptionFormat_t;
//   38 */

        RSEG XDATA_ROM_C:CONST:REORDER:NOROOT(0)
        DATA
//   39 const SimpleDescriptionFormat_t GenericApp_SimpleDesc =
GenericApp_SimpleDesc:
        DB 10
        DW 3844, 1
        DB 0, 1
        DW GenericApp_ClusterList
        DB 1
        DW GenericApp_ClusterList
//   40 {
//   41   GENERICAPP_ENDPOINT,              //  int Endpoint;            10
//   42   GENERICAPP_PROFID,                //  uint16 AppProfId[2];     0x0F04
//   43   GENERICAPP_DEVICEID,              //  uint16 AppDeviceId[2];   0x0001
//   44   GENERICAPP_DEVICE_VERSION,        //  int   AppDevVer:4;       0
//   45   GENERICAPP_FLAGS,                 //  int   AppFlags:4;        0
//   46   GENERICAPP_MAX_CLUSTERS,          //  byte  AppNumInClusters;  1
//   47   (cId_t *)GenericApp_ClusterList,  //  byte *pAppInClusterList; GenericApp_ClusterList[GENERICAPP_MAX_CLUSTERS]
//   48   GENERICAPP_MAX_CLUSTERS,          //  byte  AppNumInClusters;  1
//   49   (cId_t *)GenericApp_ClusterList   //  byte *pAppInClusterList; GenericApp_ClusterList[GENERICAPP_MAX_CLUSTERS]
//   50 };

        RSEG XDATA_Z:XDATA:NOROOT(0)
//   51 endPointDesc_t GenericApp_epDesc;   //节点描述符
GenericApp_epDesc:
        DS 6
        REQUIRE __INIT_XDATA_Z

        RSEG XDATA_Z:XDATA:NOROOT(0)
//   52 byte GenericApp_TaskID;             //任务优先级
GenericApp_TaskID:
        DS 1
        REQUIRE __INIT_XDATA_Z

        RSEG XDATA_Z:XDATA:NOROOT(0)
//   53 byte GenericApp_TransID;            //数据发送序列号
GenericApp_TransID:
        DS 1
        REQUIRE __INIT_XDATA_Z

        RSEG XDATA_Z:XDATA:NOROOT(0)
//   54 devStates_t GenericApp_NwkState;
GenericApp_NwkState:
        DS 1
        REQUIRE __INIT_XDATA_Z
//   55 void GenericApp_MessageMSGCB( afIncomingMSGPacket_t *pkt );
//   56 void GenericApp_SendTheMessage(void);
//   57 
//   58 

        RSEG BANKED_CODE:CODE:NOROOT(0)
//   59 void GenericApp_Init(byte task_id)
GenericApp_Init:
        CFI Block cfiBlock0 Using cfiCommon0
        CFI Function GenericApp_Init
//   60 {
        FUNCALL GenericApp_Init, afRegister
        LOCFRAME ISTACK, 2, STACK
        LOCFRAME PSTACK, 0, STACK
        LOCFRAME XSTACK, 0, STACK
        LOCFRAME IOVERLAY, 0, STATIC
        LOCFRAME DOVERLAY, 0, STATIC
        ARGFRAME ISTACK, 2, STACK
        ARGFRAME PSTACK, 0, STACK
        ARGFRAME XSTACK, 0, STACK
        ARGFRAME IOVERLAY, 0, STATIC
        ARGFRAME DOVERLAY, 0, STATIC
        FUNCALL GenericApp_Init, osal_start_timerEx
        LOCFRAME ISTACK, 2, STACK
        LOCFRAME PSTACK, 0, STACK
        LOCFRAME XSTACK, 0, STACK
        LOCFRAME IOVERLAY, 0, STATIC
        LOCFRAME DOVERLAY, 0, STATIC
        ARGFRAME ISTACK, 2, STACK
        ARGFRAME PSTACK, 0, STACK
        ARGFRAME XSTACK, 0, STACK
        ARGFRAME IOVERLAY, 0, STATIC
        ARGFRAME DOVERLAY, 0, STATIC
        PUSH    DPL
        CFI DPL0 Frame(CFA_SP, 4)
        CFI CFA_SP SP+-4
        PUSH    DPH
        CFI DPH0 Frame(CFA_SP, 5)
        CFI CFA_SP SP+-5
        ; Saved register size: 2
        ; Auto size: 0
//   61     
//   62       GenericApp_TaskID  = task_id;
        MOV     A,R1
        MOV     DPTR,#GenericApp_TaskID
        MOVX    @DPTR,A
//   63       GenericApp_NwkState = DEV_INIT;
        MOV     A,#0x1
        MOV     DPTR,#GenericApp_NwkState
        MOVX    @DPTR,A
//   64       GenericApp_TransID = 0;
        CLR     A
        MOV     DPTR,#GenericApp_TransID
        MOVX    @DPTR,A
//   65       GenericApp_epDesc.endPoint = GENERICAPP_ENDPOINT;  //10
        MOV     A,#0xa
        MOV     DPTR,#GenericApp_epDesc
        MOVX    @DPTR,A
//   66       GenericApp_epDesc.task_id = &GenericApp_TaskID;    
        MOV     DPTR,#(GenericApp_epDesc + 1)
        MOV     A,#(GenericApp_TaskID & 0xff)
        MOVX    @DPTR,A
        INC     DPTR
        MOV     A,#((GenericApp_TaskID >> 8) & 0xff)
        MOVX    @DPTR,A
//   67       GenericApp_epDesc.simpleDesc =(SimpleDescriptionFormat_t *)&GenericApp_SimpleDesc;
        MOV     DPTR,#(GenericApp_epDesc + 3)
        MOV     A,#(GenericApp_SimpleDesc & 0xff)
        MOVX    @DPTR,A
        INC     DPTR
        MOV     A,#((GenericApp_SimpleDesc >> 8) & 0xff)
        MOVX    @DPTR,A
//   68       GenericApp_epDesc.latencyReq = noLatencyReqs;
        CLR     A
        MOV     DPTR,#(GenericApp_epDesc + 5)
        MOVX    @DPTR,A
//   69       afRegister(&GenericApp_epDesc); 
        ; Setup parameters for call to function afRegister
        MOV     R2,#(GenericApp_epDesc & 0xff)
        MOV     R3,#((GenericApp_epDesc >> 8) & 0xff)
        LCALL   ??afRegister?relay
//   70       osal_start_timerEx(GenericApp_TaskID, GENERICAPP_SEND_MSG_EVT, 5000);
        ; Setup parameters for call to function osal_start_timerEx
        MOV     R4,#-0x78
        MOV     R5,#0x13
        MOV     R2,#0x1
        MOV     R3,#0x0
        MOV     DPTR,#GenericApp_TaskID
        MOVX    A,@DPTR
        MOV     R1,A
        LCALL   ??osal_start_timerEx?relay
//   71 }
        POP     DPH
        CFI DPH0 SameValue
        CFI CFA_SP SP+-4
        POP     DPL
        CFI DPL0 SameValue
        CFI CFA_SP SP+-3
        LJMP    ?BRET
        CFI EndBlock cfiBlock0

        RSEG BANKED_CODE:CODE:NOROOT(0)
//   72 UINT16 GenericApp_ProcessEvent( byte task_id, UINT16 events )
GenericApp_ProcessEvent:
        CFI Block cfiBlock1 Using cfiCommon0
        CFI Function GenericApp_ProcessEvent
//   73 {
        FUNCALL GenericApp_ProcessEvent, osal_msg_receive
        LOCFRAME ISTACK, 0, STACK
        LOCFRAME PSTACK, 0, STACK
        LOCFRAME XSTACK, 12, STACK
        LOCFRAME IOVERLAY, 0, STATIC
        LOCFRAME DOVERLAY, 0, STATIC
        ARGFRAME ISTACK, 0, STACK
        ARGFRAME PSTACK, 0, STACK
        ARGFRAME XSTACK, 12, STACK
        ARGFRAME IOVERLAY, 0, STATIC
        ARGFRAME DOVERLAY, 0, STATIC
        FUNCALL GenericApp_ProcessEvent, HalLedSet
        LOCFRAME ISTACK, 0, STACK
        LOCFRAME PSTACK, 0, STACK
        LOCFRAME XSTACK, 12, STACK
        LOCFRAME IOVERLAY, 0, STATIC
        LOCFRAME DOVERLAY, 0, STATIC
        ARGFRAME ISTACK, 0, STACK
        ARGFRAME PSTACK, 0, STACK
        ARGFRAME XSTACK, 12, STACK
        ARGFRAME IOVERLAY, 0, STATIC
        ARGFRAME DOVERLAY, 0, STATIC
        FUNCALL GenericApp_ProcessEvent, osal_msg_deallocate
        LOCFRAME ISTACK, 0, STACK
        LOCFRAME PSTACK, 0, STACK
        LOCFRAME XSTACK, 12, STACK
        LOCFRAME IOVERLAY, 0, STATIC
        LOCFRAME DOVERLAY, 0, STATIC
        ARGFRAME ISTACK, 0, STACK
        ARGFRAME PSTACK, 0, STACK
        ARGFRAME XSTACK, 12, STACK
        ARGFRAME IOVERLAY, 0, STATIC
        ARGFRAME DOVERLAY, 0, STATIC
        FUNCALL GenericApp_ProcessEvent, osal_msg_receive
        LOCFRAME ISTACK, 0, STACK
        LOCFRAME PSTACK, 0, STACK
        LOCFRAME XSTACK, 12, STACK
        LOCFRAME IOVERLAY, 0, STATIC
        LOCFRAME DOVERLAY, 0, STATIC
        ARGFRAME ISTACK, 0, STACK
        ARGFRAME PSTACK, 0, STACK
        ARGFRAME XSTACK, 12, STACK
        ARGFRAME IOVERLAY, 0, STATIC
        ARGFRAME DOVERLAY, 0, STATIC
        FUNCALL GenericApp_ProcessEvent, GenericApp_SendTheMessage
        LOCFRAME ISTACK, 0, STACK
        LOCFRAME PSTACK, 0, STACK
        LOCFRAME XSTACK, 12, STACK
        LOCFRAME IOVERLAY, 0, STATIC
        LOCFRAME DOVERLAY, 0, STATIC
        ARGFRAME ISTACK, 0, STACK
        ARGFRAME PSTACK, 0, STACK
        ARGFRAME XSTACK, 12, STACK
        ARGFRAME IOVERLAY, 0, STATIC
        ARGFRAME DOVERLAY, 0, STATIC
        FUNCALL GenericApp_ProcessEvent, osal_start_timerEx
        LOCFRAME ISTACK, 0, STACK
        LOCFRAME PSTACK, 0, STACK
        LOCFRAME XSTACK, 12, STACK
        LOCFRAME IOVERLAY, 0, STATIC
        LOCFRAME DOVERLAY, 0, STATIC
        ARGFRAME ISTACK, 0, STACK
        ARGFRAME PSTACK, 0, STACK
        ARGFRAME XSTACK, 12, STACK
        ARGFRAME IOVERLAY, 0, STATIC
        ARGFRAME DOVERLAY, 0, STATIC
        MOV     A,#-0xc
        LCALL   ?BANKED_ENTER_XDATA
        CFI DPH0 load(1, XDATA, add(CFA_XSP16, literal(-1)))
        CFI DPL0 load(1, XDATA, add(CFA_XSP16, literal(-2)))
        CFI ?BRET_EXT load(1, XDATA, add(CFA_XSP16, literal(-3)))
        CFI ?RET_HIGH load(1, XDATA, add(CFA_XSP16, literal(-4)))
        CFI ?RET_LOW load(1, XDATA, add(CFA_XSP16, literal(-5)))
        CFI R7 load(1, XDATA, add(CFA_XSP16, literal(-6)))
        CFI V3 load(1, XDATA, add(CFA_XSP16, literal(-7)))
        CFI V2 load(1, XDATA, add(CFA_XSP16, literal(-8)))
        CFI V1 load(1, XDATA, add(CFA_XSP16, literal(-9)))
        CFI V0 load(1, XDATA, add(CFA_XSP16, literal(-10)))
        CFI VB load(1, XDATA, add(CFA_XSP16, literal(-11)))
        CFI R6 load(1, XDATA, add(CFA_XSP16, literal(-12)))
        CFI CFA_SP SP+0
        CFI CFA_XSP16 add(XSP16, 12)
        ; Saved register size: 12
        ; Auto size: 0
        MOV     A,R2
        MOV     R6,A
        MOV     A,R3
        MOV     R7,A
//   74       afIncomingMSGPacket_t *MSGpkt;
//   75       if ( events & SYS_EVENT_MSG )
        MOV     A,#-0x80
        ANL     A,R7
        MOV     R1,A
        CLR     A
        JNZ     ??GenericApp_ProcessEvent_0
        MOV     A,R1
??GenericApp_ProcessEvent_0:
        JZ      ??GenericApp_ProcessEvent_1
//   76       {
//   77           MSGpkt = (afIncomingMSGPacket_t *)osal_msg_receive( GenericApp_TaskID );
        ; Setup parameters for call to function osal_msg_receive
        SJMP    ??GenericApp_ProcessEvent_2
//   78           while ( MSGpkt )
//   79           {
//   80             switch ( MSGpkt->hdr.event )
??GenericApp_ProcessEvent_3:
        MOV     DPL,?V0 + 0
        MOV     DPH,?V0 + 1
        MOVX    A,@DPTR
        XRL     A,#0xd1
        JNZ     ??GenericApp_ProcessEvent_4
//   81             {
//   82               case ZDO_STATE_CHANGE:
//   83                 GenericApp_NwkState = (devStates_t)(MSGpkt->hdr.status);
        INC     DPTR
        MOVX    A,@DPTR
        MOV     DPTR,#GenericApp_NwkState
        MOVX    @DPTR,A
//   84                 if((GenericApp_NwkState == DEV_END_DEVICE))
        XRL     A,#0x6
        JNZ     ??GenericApp_ProcessEvent_4
//   85                 {
//   86                   HalLedSet (HAL_LED_1, HAL_LED_MODE_ON);
        ; Setup parameters for call to function HalLedSet
        MOV     R2,#0x1
        MOV     R1,#0x1
        LCALL   ??HalLedSet?relay
//   87                 }
//   88                break;
//   89               default:
//   90               break;
//   91             }
//   92           osal_msg_deallocate( (uint8 *)MSGpkt );
??GenericApp_ProcessEvent_4:
        ; Setup parameters for call to function osal_msg_deallocate
        MOV     R2,?V0 + 0
        MOV     R3,?V0 + 1
        LCALL   ??osal_msg_deallocate?relay
//   93           // Next
//   94           MSGpkt = (afIncomingMSGPacket_t *)osal_msg_receive( GenericApp_TaskID );
        ; Setup parameters for call to function osal_msg_receive
??GenericApp_ProcessEvent_2:
        MOV     DPTR,#GenericApp_TaskID
        MOVX    A,@DPTR
        MOV     R1,A
        LCALL   ??osal_msg_receive?relay
        MOV     ?V0 + 0,R2
        MOV     ?V0 + 1,R3
//   95           }
        MOV     A,?V0 + 0
        JNZ     ??GenericApp_ProcessEvent_5
        MOV     A,?V0 + 1
??GenericApp_ProcessEvent_5:
        JNZ     ??GenericApp_ProcessEvent_3
//   96       }
//   97     if ( events & GENERICAPP_SEND_MSG_EVT )
??GenericApp_ProcessEvent_1:
        MOV     A,R6
        MOV     C,0xE0 /* A   */.0
        JNC     ??GenericApp_ProcessEvent_6
//   98     {
//   99       // Send "the" message
//  100       GenericApp_SendTheMessage();           //SEND DATA
        ; Setup parameters for call to function GenericApp_SendTheMessage
        LCALL   ??GenericApp_SendTheMessage?relay
//  101       // Setup to send message again
//  102       osal_start_timerEx( GenericApp_TaskID,
//  103                         GENERICAPP_SEND_MSG_EVT,
//  104                       1000 );
        ; Setup parameters for call to function osal_start_timerEx
        MOV     R4,#-0x18
        MOV     R5,#0x3
        MOV     R2,#0x1
        MOV     R3,#0x0
        MOV     DPTR,#GenericApp_TaskID
        MOVX    A,@DPTR
        MOV     R1,A
        LCALL   ??osal_start_timerEx?relay
//  105       // return unprocessed events
//  106       return (events ^ GENERICAPP_SEND_MSG_EVT);
        MOV     A,#0x1
        XRL     A,R6
        MOV     R2,A
        MOV     A,R7
        MOV     R3,A
        SJMP    ??GenericApp_ProcessEvent_7
//  107     } 
//  108       return 0;
??GenericApp_ProcessEvent_6:
        MOV     R2,#0x0
        MOV     R3,#0x0
??GenericApp_ProcessEvent_7:
        MOV     R7,#0x4
        LJMP    ?BANKED_LEAVE_XDATA
        CFI EndBlock cfiBlock1
//  109 }

        RSEG BANKED_CODE:CODE:NOROOT(0)
//  110 void GenericApp_SendTheMessage( void )
GenericApp_SendTheMessage:
        CFI Block cfiBlock2 Using cfiCommon0
        CFI Function GenericApp_SendTheMessage
//  111 {
        FUNCALL GenericApp_SendTheMessage, osal_strlen
        LOCFRAME ISTACK, 0, STACK
        LOCFRAME PSTACK, 0, STACK
        LOCFRAME XSTACK, 51, STACK
        LOCFRAME IOVERLAY, 0, STATIC
        LOCFRAME DOVERLAY, 0, STATIC
        ARGFRAME ISTACK, 0, STACK
        ARGFRAME PSTACK, 0, STACK
        ARGFRAME XSTACK, 51, STACK
        ARGFRAME IOVERLAY, 0, STATIC
        ARGFRAME DOVERLAY, 0, STATIC
        FUNCALL GenericApp_SendTheMessage, AF_DataRequest
        LOCFRAME ISTACK, 0, STACK
        LOCFRAME PSTACK, 0, STACK
        LOCFRAME XSTACK, 55, STACK
        LOCFRAME IOVERLAY, 0, STATIC
        LOCFRAME DOVERLAY, 0, STATIC
        ARGFRAME ISTACK, 0, STACK
        ARGFRAME PSTACK, 0, STACK
        ARGFRAME XSTACK, 55, STACK
        ARGFRAME IOVERLAY, 0, STATIC
        ARGFRAME DOVERLAY, 0, STATIC
        MOV     A,#-0xa
        LCALL   ?BANKED_ENTER_XDATA
        CFI DPH0 load(1, XDATA, add(CFA_XSP16, literal(-1)))
        CFI DPL0 load(1, XDATA, add(CFA_XSP16, literal(-2)))
        CFI ?BRET_EXT load(1, XDATA, add(CFA_XSP16, literal(-3)))
        CFI ?RET_HIGH load(1, XDATA, add(CFA_XSP16, literal(-4)))
        CFI ?RET_LOW load(1, XDATA, add(CFA_XSP16, literal(-5)))
        CFI R7 load(1, XDATA, add(CFA_XSP16, literal(-6)))
        CFI V1 load(1, XDATA, add(CFA_XSP16, literal(-7)))
        CFI V0 load(1, XDATA, add(CFA_XSP16, literal(-8)))
        CFI VB load(1, XDATA, add(CFA_XSP16, literal(-9)))
        CFI R6 load(1, XDATA, add(CFA_XSP16, literal(-10)))
        CFI CFA_SP SP+0
        CFI CFA_XSP16 add(XSP16, 10)
        ; Saved register size: 10
        ; Auto size: 36
        MOV     A,#-0x24
        LCALL   ?ALLOC_XSTACK8
        CFI CFA_XSP16 add(XSP16, 46)
//  112   char theMessageData[] = "send message from end\n\r";
        MOV     A,#0xc
        LCALL   ?XSTACK_DISP0_8
        MOV     R4,DPL
        MOV     R5,DPH
        MOV     DPH,#((`?<Constant "send message from end\\n\\r">` >> 8) & 0xff)
        MOV     DPL,#(`?<Constant "send message from end\\n\\r">` & 0xff)
        MOV     A,#0x18
        LCALL   ?MOVE_LONG8_XDATA_XDATA
//  113    afAddrType_t GenericApp_DstAddr;
//  114   GenericApp_DstAddr.addrMode = (afAddrMode_t)Addr16Bit;
        MOV     A,#0x8
        LCALL   ?XSTACK_DISP0_8
        MOV     A,#0x2
        MOVX    @DPTR,A
//  115   GenericApp_DstAddr.endPoint = GENERICAPP_ENDPOINT;
        MOV     A,#0x9
        LCALL   ?XSTACK_DISP0_8
        MOV     A,#0xa
        MOVX    @DPTR,A
//  116   GenericApp_DstAddr.addr.shortAddr = 0x0000;  
        MOV     DPL,?XSP + 0
        MOV     DPH,?XSP + 1
        CLR     A
        MOVX    @DPTR,A
        INC     DPTR
        MOVX    @DPTR,A
//  117   
//  118   if ( AF_DataRequest( &GenericApp_DstAddr, &GenericApp_epDesc,
//  119                        GENERICAPP_CLUSTERID,
//  120                        (byte)osal_strlen( theMessageData ) + 1,
//  121                        (byte *)&theMessageData,
//  122                        &GenericApp_TransID,
//  123                        AF_DISCV_ROUTE, AF_DEFAULT_RADIUS ) == afStatus_SUCCESS )
        ; Setup parameters for call to function AF_DataRequest
        MOV     ?V0 + 0,#0x1e
        MOV     R0,#?V0 + 0
        LCALL   ?PUSH_XSTACK_I_ONE
        CFI CFA_XSP16 add(XSP16, 47)
        MOV     ?V0 + 0,#(GenericApp_TransID & 0xff)
        MOV     ?V0 + 1,#((GenericApp_TransID >> 8) & 0xff)
        MOV     R0,#?V0 + 0
        LCALL   ?PUSH_XSTACK_I_TWO
        CFI CFA_XSP16 add(XSP16, 49)
        MOV     A,#0xf
        LCALL   ?XSTACK_DISP0_8
        MOV     ?V0 + 0,DPL
        MOV     ?V0 + 1,DPH
        MOV     R0,#?V0 + 0
        LCALL   ?PUSH_XSTACK_I_TWO
        CFI CFA_XSP16 add(XSP16, 51)
        ; Setup parameters for call to function osal_strlen
        MOV     A,#0x11
        LCALL   ?XSTACK_DISP0_8
        MOV     R2,DPL
        MOV     R3,DPH
        LCALL   ??osal_strlen?relay
        MOV     A,R2
        MOV     R0,A
        MOV     A,#0x1
        ADD     A,R0
        MOV     ?V0 + 0,A
        CLR     A
        ADDC    A,#0x0
        MOV     ?V0 + 1,A
        MOV     R0,#?V0 + 0
        LCALL   ?PUSH_XSTACK_I_TWO
        CFI CFA_XSP16 add(XSP16, 53)
        MOV     ?V0 + 0,#0x1
        MOV     ?V0 + 1,#0x0
        MOV     R0,#?V0 + 0
        LCALL   ?PUSH_XSTACK_I_TWO
        CFI CFA_XSP16 add(XSP16, 55)
        MOV     R1,#0x20
        MOV     R4,#(GenericApp_epDesc & 0xff)
        MOV     R5,#((GenericApp_epDesc >> 8) & 0xff)
        MOV     A,#0x9
        LCALL   ?XSTACK_DISP0_8
        MOV     R2,DPL
        MOV     R3,DPH
        LCALL   ??AF_DataRequest?relay
        MOV     A,#0x9
        LCALL   ?DEALLOC_XSTACK8
        CFI CFA_XSP16 add(XSP16, 46)
//  124   {
//  125     // Successfully requested to be sent.
//  126   }
//  127   else
//  128   {
//  129     // Error occurred in request to send.
//  130   }
//  131 }
        MOV     A,#0x24
        LCALL   ?DEALLOC_XSTACK8
        CFI CFA_XSP16 add(XSP16, 10)
        MOV     R7,#0x2
        LJMP    ?BANKED_LEAVE_XDATA
        CFI EndBlock cfiBlock2

        RSEG BANK_RELAYS:CODE:REORDER:NOROOT(0)
??GenericApp_Init?relay:
        LCALL   ?BDISPATCH
        DATA
        DC24    GenericApp_Init

        RSEG BANK_RELAYS:CODE:REORDER:NOROOT(0)
??GenericApp_ProcessEvent?relay:
        LCALL   ?BDISPATCH
        DATA
        DC24    GenericApp_ProcessEvent

        RSEG BANK_RELAYS:CODE:REORDER:NOROOT(0)
??GenericApp_SendTheMessage?relay:
        LCALL   ?BDISPATCH
        DATA
        DC24    GenericApp_SendTheMessage

        RSEG XDATA_ROM_C:CONST:REORDER:NOROOT(0)
        DATA
`?<Constant "send message from end\\n\\r">`:
        DB "send message from end\012\015"

        END
//  132 
//  133 
//  134 
//  135 
//  136 
//  137 
//  138 
//  139 
//  140 
//  141 
// 
// 362 bytes in segment BANKED_CODE
//  18 bytes in segment BANK_RELAYS
//  38 bytes in segment XDATA_ROM_C
//   9 bytes in segment XDATA_Z
// 
// 380 bytes of CODE  memory
//  38 bytes of CONST memory
//   9 bytes of XDATA memory
//
//Errors: none
//Warnings: none
