ARM Linker, 4.1 [Build 567] [Evaluation]

==============================================================================

Section Cross References

    startup_lpc11xx.o(RESET) refers to startup_lpc11xx.o(STACK) for __initial_sp
    startup_lpc11xx.o(RESET) refers to startup_lpc11xx.o(.text) for Reset_Handler
    startup_lpc11xx.o(RESET) refers to lpc11c14_it.o(.text) for NMI_Handler
    startup_lpc11xx.o(RESET) refers to os_cpu_a.o(.text) for OS_CPU_PendSVHandler
    startup_lpc11xx.o(RESET) refers to os_cpu_c.o(.text) for OS_CPU_SysTickHandler
    startup_lpc11xx.o(RESET) refers to timer32.o(.text) for TIMER32_0_IRQHandler
    startup_lpc11xx.o(RESET) refers to uart.o(.text) for UART_IRQHandler
    startup_lpc11xx.o(RESET) refers to gpio.o(.text) for PIOINT3_IRQHandler
    startup_lpc11xx.o(.text) refers to entry.o(.ARM.Collect$$$$00000000) for __main
    system_lpc11xx.o(.text) refers to system_lpc11xx.o(.data) for ClockSource
    gpio.o(.text) refers to gpio.o(.data) for gpio0_counter
    gpio.o(.text) refers to gpio.o(.constdata) for LPC_GPIO
    uart.o(.text) refers to uidiv.o(.text) for __aeabi_uidivmod
    uart.o(.text) refers to printfa.o(i.__0vsnprintf) for __c89vsnprintf
    uart.o(.text) refers to uart.o(.data) for UARTStatus
    uart.o(.text) refers to uart.o(.bss) for UARTBuffer
    uart.o(.text) refers to system_lpc11xx.o(.data) for SystemAHBFrequency
    retarget.o(.text) refers to uart.o(.data) for UARTCount
    retarget.o(.text) refers to uart.o(.bss) for UARTBuffer
    timer32.o(.text) refers to uidiv.o(.text) for __aeabi_uidivmod
    timer32.o(.text) refers to system_lpc11xx.o(.data) for SystemAHBFrequency
    timer32.o(.text) refers to timer32.o(.data) for timer32_0_counter
    key.o(.text) refers to gpio.o(.text) for GPIOSetDir
    seg7led.o(.text) refers to gpio.o(.text) for GPIOSetDir
    seg7led.o(.text) refers to seg7led.o(.constdata) for segcode
    os_cpu_a.o(.text) refers to os_core.o(.data) for OSRunning
    os_cpu_a.o(.text) refers to os_cpu_c.o(.text) for OSTaskSwHook
    os_cpu_c.o(.text) refers to os_cpu_a.o(.text) for OS_CPU_SR_Save
    os_cpu_c.o(.text) refers to os_core.o(.text) for OSTimeTick
    os_cpu_c.o(.text) refers to os_core.o(.data) for OSIntNesting
    os_core.o(.text) refers to os_cpu_a.o(.text) for OS_CPU_SR_Save
    os_core.o(.text) refers to os_core.o(i.__ARM_common_switch8) for __ARM_common_switch8
    os_core.o(.text) refers to os_core.o(.data) for OSIntNesting
    os_core.o(.text) refers to os_core.o(.constdata) for OSUnMapTbl
    os_core.o(.text) refers to os_core.o(.bss) for OSRdyTbl
    os_core.o(.text) refers to os_task.o(.text) for OSTaskStkChk
    os_core.o(.text) refers to os_time.o(.text) for OSTimeDly
    os_core.o(.text) refers to uidiv.o(.text) for __aeabi_uidivmod
    os_core.o(.text) refers to os_cpu_c.o(.text) for OSTaskStatHook
    os_core.o(.text) refers to os_flag.o(.text) for OS_FlagInit
    os_core.o(.text) refers to os_mem.o(.text) for OS_MemInit
    os_core.o(.text) refers to os_q.o(.text) for OS_QInit
    os_flag.o(.text) refers to os_cpu_a.o(.text) for OS_CPU_SR_Save
    os_flag.o(.text) refers to os_core.o(.text) for OS_Sched
    os_flag.o(.text) refers to os_core.o(.data) for OSIntNesting
    os_flag.o(.text) refers to os_core.o(.bss) for OSRdyTbl
    os_mbox.o(.text) refers to os_cpu_a.o(.text) for OS_CPU_SR_Save
    os_mbox.o(.text) refers to os_core.o(.text) for OS_EventWaitListInit
    os_mbox.o(.text) refers to os_core.o(.data) for OSIntNesting
    os_mem.o(.text) refers to os_cpu_a.o(.text) for OS_CPU_SR_Save
    os_mem.o(.text) refers to os_core.o(.text) for OS_StrLen
    os_mem.o(.text) refers to os_core.o(.data) for OSMemFreeList
    os_mem.o(.text) refers to os_core.o(.bss) for OSMemTbl
    os_mutex.o(.text) refers to os_cpu_a.o(.text) for OS_CPU_SR_Save
    os_mutex.o(.text) refers to os_core.o(.text) for OS_EventWaitListInit
    os_mutex.o(.text) refers to os_core.o(.data) for OSIntNesting
    os_mutex.o(.text) refers to os_core.o(.bss) for OSTCBPrioTbl
    os_q.o(.text) refers to os_cpu_a.o(.text) for OS_CPU_SR_Save
    os_q.o(.text) refers to os_core.o(.text) for OS_EventWaitListInit
    os_q.o(.text) refers to os_core.o(.data) for OSIntNesting
    os_q.o(.text) refers to os_core.o(.bss) for OSQTbl
    os_sem.o(.text) refers to os_cpu_a.o(.text) for OS_CPU_SR_Save
    os_sem.o(.text) refers to os_core.o(.text) for OS_EventWaitListInit
    os_sem.o(.text) refers to os_core.o(.data) for OSIntNesting
    os_task.o(.text) refers to os_cpu_a.o(.text) for OS_CPU_SR_Save
    os_task.o(.text) refers to os_core.o(.text) for OS_Sched
    os_task.o(.text) refers to os_cpu_c.o(.text) for OSTaskStkInit
    os_task.o(.text) refers to os_flag.o(.text) for OS_FlagUnlink
    os_task.o(.text) refers to os_core.o(.bss) for OSTCBPrioTbl
    os_task.o(.text) refers to os_core.o(.data) for OSTCBCur
    os_time.o(.text) refers to os_cpu_a.o(.text) for OS_CPU_SR_Save
    os_time.o(.text) refers to os_core.o(.text) for OS_Sched
    os_time.o(.text) refers to uidiv.o(.text) for __aeabi_uidivmod
    os_time.o(.text) refers to os_core.o(.data) for OSIntNesting
    os_time.o(.text) refers to os_core.o(.bss) for OSRdyTbl
    main.o(.text) refers to os_time.o(.text) for OSTimeGet
    main.o(.text) refers to uidiv.o(.text) for __aeabi_uidivmod
    main.o(.text) refers to printf6.o(i.__0printf$6) for __2printf
    main.o(.text) refers to os_task.o(.text) for OSTaskStkChk
    main.o(.text) refers to os_sem.o(.text) for OSSemPend
    main.o(.text) refers to gpio.o(.text) for GPIOSetValue
    main.o(.text) refers to speaker_op.o(.text) for speaker_op
    main.o(.text) refers to key.o(.text) for KEY_Read
    main.o(.text) refers to os_mbox.o(.text) for OSMboxPend
    main.o(.text) refers to seg7led.o(.text) for Seg7Led_Put
    main.o(.text) refers to os_cpu_c.o(.text) for OS_CPU_SysTickInit
    main.o(.text) refers to os_core.o(.text) for OSStatInit
    main.o(.text) refers to system_lpc11xx.o(.text) for SystemInit
    main.o(.text) refers to uart.o(.text) for UARTInit
    main.o(.text) refers to os_core.o(.data) for OSCPUUsage
    main.o(.text) refers to main.o(.data) for Key_Sem
    main.o(.text) refers to main.o(.bss) for Task_Start_STK
    lpc11c14_it.o(.text) refers to os_cpu_a.o(.text) for OS_CPU_PendSVHandler
    lpc11c14_it.o(.text) refers to os_cpu_c.o(.text) for OS_CPU_SysTickHandler
    speaker_op.o(.text) refers to timer32.o(.text) for init_timer32PWM
    speaker_op.o(.text) refers to speaker_op.o(.data) for period
    entry.o(.ARM.Collect$$$$00000000) refers (Special) to entry7.o(.ARM.Collect$$$$00000007) for _main_init
    entry.o(.ARM.Collect$$$$00000000) refers (Special) to entry5.o(.ARM.Collect$$$$00000004) for _main_scatterload
    entry.o(.ARM.Collect$$$$00000000) refers (Special) to entry2.o(.ARM.Collect$$$$00000001) for _main_stk
    printfb.o(i.__0fprintf$bare) refers to printfb.o(i._printf_core) for _printf_core
    printfb.o(i.__0fprintf$bare) refers to retarget.o(.text) for fputc
    printfb.o(i.__0printf$bare) refers to printfb.o(i._printf_core) for _printf_core
    printfb.o(i.__0printf$bare) refers to retarget.o(.text) for fputc
    printfb.o(i.__0printf$bare) refers to retarget.o(.data) for __stdout
    printfb.o(i.__0snprintf$bare) refers to printfb.o(i._printf_core) for _printf_core
    printfb.o(i.__0snprintf$bare) refers to printfb.o(i._snputc) for _snputc
    printfb.o(i.__0sprintf$bare) refers to printfb.o(i._printf_core) for _printf_core
    printfb.o(i.__0sprintf$bare) refers to printfb.o(i._sputc) for _sputc
    printfb.o(i.__0vfprintf$bare) refers to printfb.o(i._printf_core) for _printf_core
    printfb.o(i.__0vfprintf$bare) refers to retarget.o(.text) for fputc
    printfb.o(i.__0vprintf$bare) refers to printfb.o(i._printf_core) for _printf_core
    printfb.o(i.__0vprintf$bare) refers to retarget.o(.text) for fputc
    printfb.o(i.__0vprintf$bare) refers to retarget.o(.data) for __stdout
    printfb.o(i.__0vsnprintf$bare) refers to printfb.o(i._printf_core) for _printf_core
    printfb.o(i.__0vsnprintf$bare) refers to printfb.o(i._snputc) for _snputc
    printfb.o(i.__0vsprintf$bare) refers to printfb.o(i._printf_core) for _printf_core
    printfb.o(i.__0vsprintf$bare) refers to printfb.o(i._sputc) for _sputc
    printf0.o(i.__0fprintf$0) refers to printf0.o(i._printf_core) for _printf_core
    printf0.o(i.__0fprintf$0) refers to retarget.o(.text) for fputc
    printf0.o(i.__0printf$0) refers to printf0.o(i._printf_core) for _printf_core
    printf0.o(i.__0printf$0) refers to retarget.o(.text) for fputc
    printf0.o(i.__0printf$0) refers to retarget.o(.data) for __stdout
    printf0.o(i.__0snprintf$0) refers to printf0.o(i._printf_core) for _printf_core
    printf0.o(i.__0snprintf$0) refers to printf0.o(i._snputc) for _snputc
    printf0.o(i.__0sprintf$0) refers to printf0.o(i._printf_core) for _printf_core
    printf0.o(i.__0sprintf$0) refers to printf0.o(i._sputc) for _sputc
    printf0.o(i.__0vfprintf$0) refers to printf0.o(i._printf_core) for _printf_core
    printf0.o(i.__0vfprintf$0) refers to retarget.o(.text) for fputc
    printf0.o(i.__0vprintf$0) refers to printf0.o(i._printf_core) for _printf_core
    printf0.o(i.__0vprintf$0) refers to retarget.o(.text) for fputc
    printf0.o(i.__0vprintf$0) refers to retarget.o(.data) for __stdout
    printf0.o(i.__0vsnprintf$0) refers to printf0.o(i._printf_core) for _printf_core
    printf0.o(i.__0vsnprintf$0) refers to printf0.o(i._snputc) for _snputc
    printf0.o(i.__0vsprintf$0) refers to printf0.o(i._printf_core) for _printf_core
    printf0.o(i.__0vsprintf$0) refers to printf0.o(i._sputc) for _sputc
    printf1.o(i.__0fprintf$1) refers to printf1.o(i._printf_core) for _printf_core
    printf1.o(i.__0fprintf$1) refers to retarget.o(.text) for fputc
    printf1.o(i.__0printf$1) refers to printf1.o(i._printf_core) for _printf_core
    printf1.o(i.__0printf$1) refers to retarget.o(.text) for fputc
    printf1.o(i.__0printf$1) refers to retarget.o(.data) for __stdout
    printf1.o(i.__0snprintf$1) refers to printf1.o(i._printf_core) for _printf_core
    printf1.o(i.__0snprintf$1) refers to printf1.o(i._snputc) for _snputc
    printf1.o(i.__0sprintf$1) refers to printf1.o(i._printf_core) for _printf_core
    printf1.o(i.__0sprintf$1) refers to printf1.o(i._sputc) for _sputc
    printf1.o(i.__0vfprintf$1) refers to printf1.o(i._printf_core) for _printf_core
    printf1.o(i.__0vfprintf$1) refers to retarget.o(.text) for fputc
    printf1.o(i.__0vprintf$1) refers to printf1.o(i._printf_core) for _printf_core
    printf1.o(i.__0vprintf$1) refers to retarget.o(.text) for fputc
    printf1.o(i.__0vprintf$1) refers to retarget.o(.data) for __stdout
    printf1.o(i.__0vsnprintf$1) refers to printf1.o(i._printf_core) for _printf_core
    printf1.o(i.__0vsnprintf$1) refers to printf1.o(i._snputc) for _snputc
    printf1.o(i.__0vsprintf$1) refers to printf1.o(i._printf_core) for _printf_core
    printf1.o(i.__0vsprintf$1) refers to printf1.o(i._sputc) for _sputc
    printf1.o(i._printf_core) refers to uidiv.o(.text) for __aeabi_uidivmod
    printf2.o(i.__0fprintf$2) refers to printf2.o(i._printf_core) for _printf_core
    printf2.o(i.__0fprintf$2) refers to retarget.o(.text) for fputc
    printf2.o(i.__0printf$2) refers to printf2.o(i._printf_core) for _printf_core
    printf2.o(i.__0printf$2) refers to retarget.o(.text) for fputc
    printf2.o(i.__0printf$2) refers to retarget.o(.data) for __stdout
    printf2.o(i.__0snprintf$2) refers to printf2.o(i._printf_core) for _printf_core
    printf2.o(i.__0snprintf$2) refers to printf2.o(i._snputc) for _snputc
    printf2.o(i.__0sprintf$2) refers to printf2.o(i._printf_core) for _printf_core
    printf2.o(i.__0sprintf$2) refers to printf2.o(i._sputc) for _sputc
    printf2.o(i.__0vfprintf$2) refers to printf2.o(i._printf_core) for _printf_core
    printf2.o(i.__0vfprintf$2) refers to retarget.o(.text) for fputc
    printf2.o(i.__0vprintf$2) refers to printf2.o(i._printf_core) for _printf_core
    printf2.o(i.__0vprintf$2) refers to retarget.o(.text) for fputc
    printf2.o(i.__0vprintf$2) refers to retarget.o(.data) for __stdout
    printf2.o(i.__0vsnprintf$2) refers to printf2.o(i._printf_core) for _printf_core
    printf2.o(i.__0vsnprintf$2) refers to printf2.o(i._snputc) for _snputc
    printf2.o(i.__0vsprintf$2) refers to printf2.o(i._printf_core) for _printf_core
    printf2.o(i.__0vsprintf$2) refers to printf2.o(i._sputc) for _sputc
    printf3.o(i.__0fprintf$3) refers to printf3.o(i._printf_core) for _printf_core
    printf3.o(i.__0fprintf$3) refers to retarget.o(.text) for fputc
    printf3.o(i.__0printf$3) refers to printf3.o(i._printf_core) for _printf_core
    printf3.o(i.__0printf$3) refers to retarget.o(.text) for fputc
    printf3.o(i.__0printf$3) refers to retarget.o(.data) for __stdout
    printf3.o(i.__0snprintf$3) refers to printf3.o(i._printf_core) for _printf_core
    printf3.o(i.__0snprintf$3) refers to printf3.o(i._snputc) for _snputc
    printf3.o(i.__0sprintf$3) refers to printf3.o(i._printf_core) for _printf_core
    printf3.o(i.__0sprintf$3) refers to printf3.o(i._sputc) for _sputc
    printf3.o(i.__0vfprintf$3) refers to printf3.o(i._printf_core) for _printf_core
    printf3.o(i.__0vfprintf$3) refers to retarget.o(.text) for fputc
    printf3.o(i.__0vprintf$3) refers to printf3.o(i._printf_core) for _printf_core
    printf3.o(i.__0vprintf$3) refers to retarget.o(.text) for fputc
    printf3.o(i.__0vprintf$3) refers to retarget.o(.data) for __stdout
    printf3.o(i.__0vsnprintf$3) refers to printf3.o(i._printf_core) for _printf_core
    printf3.o(i.__0vsnprintf$3) refers to printf3.o(i._snputc) for _snputc
    printf3.o(i.__0vsprintf$3) refers to printf3.o(i._printf_core) for _printf_core
    printf3.o(i.__0vsprintf$3) refers to printf3.o(i._sputc) for _sputc
    printf3.o(i._printf_core) refers to uidiv.o(.text) for __aeabi_uidivmod
    printf4.o(i.__0fprintf$4) refers to printf4.o(i._printf_core) for _printf_core
    printf4.o(i.__0fprintf$4) refers to retarget.o(.text) for fputc
    printf4.o(i.__0printf$4) refers to printf4.o(i._printf_core) for _printf_core
    printf4.o(i.__0printf$4) refers to retarget.o(.text) for fputc
    printf4.o(i.__0printf$4) refers to retarget.o(.data) for __stdout
    printf4.o(i.__0snprintf$4) refers to printf4.o(i._printf_core) for _printf_core
    printf4.o(i.__0snprintf$4) refers to printf4.o(i._snputc) for _snputc
    printf4.o(i.__0sprintf$4) refers to printf4.o(i._printf_core) for _printf_core
    printf4.o(i.__0sprintf$4) refers to printf4.o(i._sputc) for _sputc
    printf4.o(i.__0vfprintf$4) refers to printf4.o(i._printf_core) for _printf_core
    printf4.o(i.__0vfprintf$4) refers to retarget.o(.text) for fputc
    printf4.o(i.__0vprintf$4) refers to printf4.o(i._printf_core) for _printf_core
    printf4.o(i.__0vprintf$4) refers to retarget.o(.text) for fputc
    printf4.o(i.__0vprintf$4) refers to retarget.o(.data) for __stdout
    printf4.o(i.__0vsnprintf$4) refers to printf4.o(i._printf_core) for _printf_core
    printf4.o(i.__0vsnprintf$4) refers to printf4.o(i._snputc) for _snputc
    printf4.o(i.__0vsprintf$4) refers to printf4.o(i._printf_core) for _printf_core
    printf4.o(i.__0vsprintf$4) refers to printf4.o(i._sputc) for _sputc
    printf4.o(i._printf_core) refers to uldiv.o(.text) for __aeabi_uldivmod
    printf5.o(i.__0fprintf$5) refers to printf5.o(i._printf_core) for _printf_core
    printf5.o(i.__0fprintf$5) refers to retarget.o(.text) for fputc
    printf5.o(i.__0printf$5) refers to printf5.o(i._printf_core) for _printf_core
    printf5.o(i.__0printf$5) refers to retarget.o(.text) for fputc
    printf5.o(i.__0printf$5) refers to retarget.o(.data) for __stdout
    printf5.o(i.__0snprintf$5) refers to printf5.o(i._printf_core) for _printf_core
    printf5.o(i.__0snprintf$5) refers to printf5.o(i._snputc) for _snputc
    printf5.o(i.__0sprintf$5) refers to printf5.o(i._printf_core) for _printf_core
    printf5.o(i.__0sprintf$5) refers to printf5.o(i._sputc) for _sputc
    printf5.o(i.__0vfprintf$5) refers to printf5.o(i._printf_core) for _printf_core
    printf5.o(i.__0vfprintf$5) refers to retarget.o(.text) for fputc
    printf5.o(i.__0vprintf$5) refers to printf5.o(i._printf_core) for _printf_core
    printf5.o(i.__0vprintf$5) refers to retarget.o(.text) for fputc
    printf5.o(i.__0vprintf$5) refers to retarget.o(.data) for __stdout
    printf5.o(i.__0vsnprintf$5) refers to printf5.o(i._printf_core) for _printf_core
    printf5.o(i.__0vsnprintf$5) refers to printf5.o(i._snputc) for _snputc
    printf5.o(i.__0vsprintf$5) refers to printf5.o(i._printf_core) for _printf_core
    printf5.o(i.__0vsprintf$5) refers to printf5.o(i._sputc) for _sputc
    printf5.o(i._printf_core) refers to uldiv.o(.text) for __aeabi_uldivmod
    printf6.o(i.__0fprintf$6) refers to printf6.o(i._printf_core) for _printf_core
    printf6.o(i.__0fprintf$6) refers to retarget.o(.text) for fputc
    printf6.o(i.__0printf$6) refers to printf6.o(i._printf_core) for _printf_core
    printf6.o(i.__0printf$6) refers to retarget.o(.text) for fputc
    printf6.o(i.__0printf$6) refers to retarget.o(.data) for __stdout
    printf6.o(i.__0snprintf$6) refers to printf6.o(i._printf_core) for _printf_core
    printf6.o(i.__0snprintf$6) refers to printf6.o(i._snputc) for _snputc
    printf6.o(i.__0sprintf$6) refers to printf6.o(i._printf_core) for _printf_core
    printf6.o(i.__0sprintf$6) refers to printf6.o(i._sputc) for _sputc
    printf6.o(i.__0vfprintf$6) refers to printf6.o(i._printf_core) for _printf_core
    printf6.o(i.__0vfprintf$6) refers to retarget.o(.text) for fputc
    printf6.o(i.__0vprintf$6) refers to printf6.o(i._printf_core) for _printf_core
    printf6.o(i.__0vprintf$6) refers to retarget.o(.text) for fputc
    printf6.o(i.__0vprintf$6) refers to retarget.o(.data) for __stdout
    printf6.o(i.__0vsnprintf$6) refers to printf6.o(i._printf_core) for _printf_core
    printf6.o(i.__0vsnprintf$6) refers to printf6.o(i._snputc) for _snputc
    printf6.o(i.__0vsprintf$6) refers to printf6.o(i._printf_core) for _printf_core
    printf6.o(i.__0vsprintf$6) refers to printf6.o(i._sputc) for _sputc
    printf6.o(i._printf_core) refers to printf6.o(i._printf_pre_padding) for _printf_pre_padding
    printf6.o(i._printf_core) refers to printf6.o(i._printf_post_padding) for _printf_post_padding
    printf6.o(i._printf_core) refers to uidiv.o(.text) for __aeabi_uidivmod
    printf7.o(i.__0fprintf$7) refers to printf7.o(i._printf_core) for _printf_core
    printf7.o(i.__0fprintf$7) refers to retarget.o(.text) for fputc
    printf7.o(i.__0printf$7) refers to printf7.o(i._printf_core) for _printf_core
    printf7.o(i.__0printf$7) refers to retarget.o(.text) for fputc
    printf7.o(i.__0printf$7) refers to retarget.o(.data) for __stdout
    printf7.o(i.__0snprintf$7) refers to printf7.o(i._printf_core) for _printf_core
    printf7.o(i.__0snprintf$7) refers to printf7.o(i._snputc) for _snputc
    printf7.o(i.__0sprintf$7) refers to printf7.o(i._printf_core) for _printf_core
    printf7.o(i.__0sprintf$7) refers to printf7.o(i._sputc) for _sputc
    printf7.o(i.__0vfprintf$7) refers to printf7.o(i._printf_core) for _printf_core
    printf7.o(i.__0vfprintf$7) refers to retarget.o(.text) for fputc
    printf7.o(i.__0vprintf$7) refers to printf7.o(i._printf_core) for _printf_core
    printf7.o(i.__0vprintf$7) refers to retarget.o(.text) for fputc
    printf7.o(i.__0vprintf$7) refers to retarget.o(.data) for __stdout
    printf7.o(i.__0vsnprintf$7) refers to printf7.o(i._printf_core) for _printf_core
    printf7.o(i.__0vsnprintf$7) refers to printf7.o(i._snputc) for _snputc
    printf7.o(i.__0vsprintf$7) refers to printf7.o(i._printf_core) for _printf_core
    printf7.o(i.__0vsprintf$7) refers to printf7.o(i._sputc) for _sputc
    printf7.o(i._printf_core) refers to printf7.o(i._printf_pre_padding) for _printf_pre_padding
    printf7.o(i._printf_core) refers to printf7.o(i._printf_post_padding) for _printf_post_padding
    printf7.o(i._printf_core) refers to uldiv.o(.text) for __aeabi_uldivmod
    printf8.o(i.__0fprintf$8) refers to printf8.o(i._printf_core) for _printf_core
    printf8.o(i.__0fprintf$8) refers to retarget.o(.text) for fputc
    printf8.o(i.__0printf$8) refers to printf8.o(i._printf_core) for _printf_core
    printf8.o(i.__0printf$8) refers to retarget.o(.text) for fputc
    printf8.o(i.__0printf$8) refers to retarget.o(.data) for __stdout
    printf8.o(i.__0snprintf$8) refers to printf8.o(i._printf_core) for _printf_core
    printf8.o(i.__0snprintf$8) refers to printf8.o(i._snputc) for _snputc
    printf8.o(i.__0sprintf$8) refers to printf8.o(i._printf_core) for _printf_core
    printf8.o(i.__0sprintf$8) refers to printf8.o(i._sputc) for _sputc
    printf8.o(i.__0vfprintf$8) refers to printf8.o(i._printf_core) for _printf_core
    printf8.o(i.__0vfprintf$8) refers to retarget.o(.text) for fputc
    printf8.o(i.__0vprintf$8) refers to printf8.o(i._printf_core) for _printf_core
    printf8.o(i.__0vprintf$8) refers to retarget.o(.text) for fputc
    printf8.o(i.__0vprintf$8) refers to retarget.o(.data) for __stdout
    printf8.o(i.__0vsnprintf$8) refers to printf8.o(i._printf_core) for _printf_core
    printf8.o(i.__0vsnprintf$8) refers to printf8.o(i._snputc) for _snputc
    printf8.o(i.__0vsprintf$8) refers to printf8.o(i._printf_core) for _printf_core
    printf8.o(i.__0vsprintf$8) refers to printf8.o(i._sputc) for _sputc
    printf8.o(i._printf_core) refers to printf8.o(i._printf_pre_padding) for _printf_pre_padding
    printf8.o(i._printf_core) refers to printf8.o(i._printf_post_padding) for _printf_post_padding
    printf8.o(i._printf_core) refers to uldiv.o(.text) for __aeabi_uldivmod
    printfa.o(i.__0fprintf) refers (Special) to iusefp.o(.text) for __I$use$fp
    printfa.o(i.__0fprintf) refers to printfa.o(i._printf_core) for _printf_core
    printfa.o(i.__0fprintf) refers to retarget.o(.text) for fputc
    printfa.o(i.__0printf) refers (Special) to iusefp.o(.text) for __I$use$fp
    printfa.o(i.__0printf) refers to printfa.o(i._printf_core) for _printf_core
    printfa.o(i.__0printf) refers to retarget.o(.text) for fputc
    printfa.o(i.__0printf) refers to retarget.o(.data) for __stdout
    printfa.o(i.__0snprintf) refers (Special) to iusefp.o(.text) for __I$use$fp
    printfa.o(i.__0snprintf) refers to printfa.o(i._printf_core) for _printf_core
    printfa.o(i.__0snprintf) refers to printfa.o(i._snputc) for _snputc
    printfa.o(i.__0sprintf) refers (Special) to iusefp.o(.text) for __I$use$fp
    printfa.o(i.__0sprintf) refers to printfa.o(i._printf_core) for _printf_core
    printfa.o(i.__0sprintf) refers to printfa.o(i._sputc) for _sputc
    printfa.o(i.__0vfprintf) refers (Special) to iusefp.o(.text) for __I$use$fp
    printfa.o(i.__0vfprintf) refers to printfa.o(i._printf_core) for _printf_core
    printfa.o(i.__0vfprintf) refers to retarget.o(.text) for fputc
    printfa.o(i.__0vprintf) refers (Special) to iusefp.o(.text) for __I$use$fp
    printfa.o(i.__0vprintf) refers to printfa.o(i._printf_core) for _printf_core
    printfa.o(i.__0vprintf) refers to retarget.o(.text) for fputc
    printfa.o(i.__0vprintf) refers to retarget.o(.data) for __stdout
    printfa.o(i.__0vsnprintf) refers (Special) to iusefp.o(.text) for __I$use$fp
    printfa.o(i.__0vsnprintf) refers to printfa.o(i._printf_core) for _printf_core
    printfa.o(i.__0vsnprintf) refers to printfa.o(i._snputc) for _snputc
    printfa.o(i.__0vsprintf) refers (Special) to iusefp.o(.text) for __I$use$fp
    printfa.o(i.__0vsprintf) refers to printfa.o(i._printf_core) for _printf_core
    printfa.o(i.__0vsprintf) refers to printfa.o(i._sputc) for _sputc
    printfa.o(i._fp_digits) refers (Special) to iusefp.o(.text) for __I$use$fp
    printfa.o(i._fp_digits) refers to dmul.o(.text) for __aeabi_dmul
    printfa.o(i._fp_digits) refers to ddiv.o(.text) for __aeabi_ddiv
    printfa.o(i._fp_digits) refers to cdrcmple.o(.text) for __aeabi_cdrcmple
    printfa.o(i._fp_digits) refers to dadd.o(.text) for __aeabi_dadd
    printfa.o(i._fp_digits) refers to dfixul.o(.text) for __aeabi_d2ulz
    printfa.o(i._fp_digits) refers to uldiv.o(.text) for __aeabi_uldivmod
    printfa.o(i._printf_core) refers (Special) to iusefp.o(.text) for __I$use$fp
    printfa.o(i._printf_core) refers to printfa.o(i._printf_pre_padding) for _printf_pre_padding
    printfa.o(i._printf_core) refers to printfa.o(i._printf_post_padding) for _printf_post_padding
    printfa.o(i._printf_core) refers to uldiv.o(.text) for __aeabi_uldivmod
    printfa.o(i._printf_core) refers to printfa.o(i._fp_digits) for _fp_digits
    printfa.o(i._printf_core) refers to uidiv.o(.text) for __aeabi_uidivmod
    printfa.o(i._printf_post_padding) refers (Special) to iusefp.o(.text) for __I$use$fp
    printfa.o(i._printf_pre_padding) refers (Special) to iusefp.o(.text) for __I$use$fp
    printfa.o(i._snputc) refers (Special) to iusefp.o(.text) for __I$use$fp
    printfa.o(i._sputc) refers (Special) to iusefp.o(.text) for __I$use$fp
    entry2.o(.ARM.Collect$$$$00000001) refers to entry2.o(.ARM.Collect$$$$00002712) for __lit__00000000
    entry2.o(.ARM.Collect$$$$00002712) refers to startup_lpc11xx.o(STACK) for __initial_sp
    entry2.o(__vectab_stack_and_reset_area) refers to startup_lpc11xx.o(STACK) for __initial_sp
    entry2.o(__vectab_stack_and_reset_area) refers to entry.o(.ARM.Collect$$$$00000000) for __main
    entry5.o(.ARM.Collect$$$$00000004) refers to init.o(.text) for __scatterload
    entry7.o(.ARM.Collect$$$$00000007) refers to main.o(.text) for main
    uldiv.o(.text) refers to llushr.o(.text) for __aeabi_llsr
    uldiv.o(.text) refers to llshl.o(.text) for __aeabi_llsl
    dadd.o(.text) refers to llshl.o(.text) for __aeabi_llsl
    dadd.o(.text) refers to llsshr.o(.text) for __aeabi_lasr
    dadd.o(.text) refers to depilogue.o(.text) for _double_epilogue
    dmul.o(.text) refers to depilogue.o(.text) for _double_epilogue
    ddiv.o(.text) refers to depilogue.o(.text) for _double_round
    dfixul.o(.text) refers to llushr.o(.text) for __aeabi_llsr
    dfixul.o(.text) refers to llshl.o(.text) for __aeabi_llsl
    init.o(.text) refers to entry5.o(.ARM.Collect$$$$00000004) for __main_after_scatterload
    depilogue.o(.text) refers to depilogue.o(i.__ARM_clz) for __ARM_clz
    depilogue.o(.text) refers to llshl.o(.text) for __aeabi_llsl
    depilogue.o(.text) refers to llushr.o(.text) for __aeabi_llsr


==============================================================================

Removing Unused input sections from the image.

    Removing startup_lpc11xx.o(HEAP), (0 bytes).
    Removing core_cm0.o(.emb_text), (32 bytes).
    Removing key.o(.constdata), (16 bytes).
    Removing os_dbg.o(.constdata), (2 bytes).
    Removing os_mutex.o(.text), (1660 bytes).
    Removing main.o(.constdata), (16 bytes).

6 unused section(s) (total 1726 bytes) removed from the image.

==============================================================================

Image Symbol Table

    Local Symbols

    Symbol Name                              Value     Ov Type        Size  Object(Section)

    RESET                                    0x00000000   Section      192  startup_lpc11xx.o(RESET)
    ../../microlib/division.c                0x00000000   Number         0  uidiv.o ABSOLUTE
    ../../microlib/division.c                0x00000000   Number         0  uldiv.o ABSOLUTE
    ../../microlib/fpadd.c                   0x00000000   Number         0  dadd.o ABSOLUTE
    ../../microlib/fpdiv.c                   0x00000000   Number         0  ddiv.o ABSOLUTE
    ../../microlib/fpepilogue.c              0x00000000   Number         0  depilogue.o ABSOLUTE
    ../../microlib/fpfix.c                   0x00000000   Number         0  dfixul.o ABSOLUTE
    ../../microlib/fpmul.c                   0x00000000   Number         0  dmul.o ABSOLUTE
    ../../microlib/init/entry.s              0x00000000   Number         0  entry5.o ABSOLUTE
    ../../microlib/init/entry.s              0x00000000   Number         0  entry.o ABSOLUTE
    ../../microlib/init/entry.s              0x00000000   Number         0  entry7.o ABSOLUTE
    ../../microlib/init/entry.s              0x00000000   Number         0  entry2.o ABSOLUTE
    ../../microlib/longlong.c                0x00000000   Number         0  llshl.o ABSOLUTE
    ../../microlib/longlong.c                0x00000000   Number         0  llushr.o ABSOLUTE
    ../../microlib/longlong.c                0x00000000   Number         0  llsshr.o ABSOLUTE
    ../../microlib/printf/printf.c           0x00000000   Number         0  printfb.o ABSOLUTE
    ../../microlib/printf/printf.c           0x00000000   Number         0  printfa.o ABSOLUTE
    ../../microlib/printf/printf.c           0x00000000   Number         0  printf7.o ABSOLUTE
    ../../microlib/printf/printf.c           0x00000000   Number         0  printf0.o ABSOLUTE
    ../../microlib/printf/printf.c           0x00000000   Number         0  printf6.o ABSOLUTE
    ../../microlib/printf/printf.c           0x00000000   Number         0  printf5.o ABSOLUTE
    ../../microlib/printf/printf.c           0x00000000   Number         0  printf1.o ABSOLUTE
    ../../microlib/printf/printf.c           0x00000000   Number         0  printf4.o ABSOLUTE
    ../../microlib/printf/printf.c           0x00000000   Number         0  printf3.o ABSOLUTE
    ../../microlib/printf/printf.c           0x00000000   Number         0  printf2.o ABSOLUTE
    ../../microlib/printf/printf.c           0x00000000   Number         0  printf8.o ABSOLUTE
    ../../microlib/printf/stubs.s            0x00000000   Number         0  stubs.o ABSOLUTE
    ../../microlib/stubs.s                   0x00000000   Number         0  useno.o ABSOLUTE
    ../../microlib/stubs.s                   0x00000000   Number         0  iusefp.o ABSOLUTE
    ..\Lib_BSP\src\key.c                     0x00000000   Number         0  key.o ABSOLUTE
    ..\Lib_BSP\src\seg7led.c                 0x00000000   Number         0  seg7led.o ABSOLUTE
    ..\Lib_MCU\src\core_cm0.c                0x00000000   Number         0  core_cm0.o ABSOLUTE
    ..\Lib_MCU\src\gpio.c                    0x00000000   Number         0  gpio.o ABSOLUTE
    ..\Lib_MCU\src\retarget.c                0x00000000   Number         0  retarget.o ABSOLUTE
    ..\Lib_MCU\src\startup_LPC11xx.s         0x00000000   Number         0  startup_lpc11xx.o ABSOLUTE
    ..\Lib_MCU\src\system_LPC11xx.c          0x00000000   Number         0  system_lpc11xx.o ABSOLUTE
    ..\Lib_MCU\src\timer32.c                 0x00000000   Number         0  timer32.o ABSOLUTE
    ..\Lib_MCU\src\uart.c                    0x00000000   Number         0  uart.o ABSOLUTE
    ..\\Lib_MCU\\src\\core_cm0.c             0x00000000   Number         0  core_cm0.o ABSOLUTE
    ..\uCOS-II_V291\CPU\os_cpu_a.s           0x00000000   Number         0  os_cpu_a.o ABSOLUTE
    ..\uCOS-II_V291\CPU\os_cpu_c.c           0x00000000   Number         0  os_cpu_c.o ABSOLUTE
    ..\uCOS-II_V291\Source\os_core.c         0x00000000   Number         0  os_core.o ABSOLUTE
    ..\uCOS-II_V291\Source\os_dbg.c          0x00000000   Number         0  os_dbg.o ABSOLUTE
    ..\uCOS-II_V291\Source\os_flag.c         0x00000000   Number         0  os_flag.o ABSOLUTE
    ..\uCOS-II_V291\Source\os_mbox.c         0x00000000   Number         0  os_mbox.o ABSOLUTE
    ..\uCOS-II_V291\Source\os_mem.c          0x00000000   Number         0  os_mem.o ABSOLUTE
    ..\uCOS-II_V291\Source\os_mutex.c        0x00000000   Number         0  os_mutex.o ABSOLUTE
    ..\uCOS-II_V291\Source\os_q.c            0x00000000   Number         0  os_q.o ABSOLUTE
    ..\uCOS-II_V291\Source\os_sem.c          0x00000000   Number         0  os_sem.o ABSOLUTE
    ..\uCOS-II_V291\Source\os_task.c         0x00000000   Number         0  os_task.o ABSOLUTE
    ..\uCOS-II_V291\Source\os_time.c         0x00000000   Number         0  os_time.o ABSOLUTE
    ..\uCOS-II_V291\Source\os_tmr.c          0x00000000   Number         0  os_tmr.o ABSOLUTE
    cdrcmple.s                               0x00000000   Number         0  cdrcmple.o ABSOLUTE
    dc.s                                     0x00000000   Number         0  dc.o ABSOLUTE
    handlers.s                               0x00000000   Number         0  handlers.o ABSOLUTE
    init.s                                   0x00000000   Number         0  init.o ABSOLUTE
    src\lpc11c14_it.c                        0x00000000   Number         0  lpc11c14_it.o ABSOLUTE
    src\main.c                               0x00000000   Number         0  main.o ABSOLUTE
    src\speaker_op.c                         0x00000000   Number         0  speaker_op.o ABSOLUTE
    .ARM.Collect$$$$00000000                 0x000000c0   Section        0  entry.o(.ARM.Collect$$$$00000000)
    .ARM.Collect$$$$00000001                 0x000000c0   Section        4  entry2.o(.ARM.Collect$$$$00000001)
    .ARM.Collect$$$$00000004                 0x000000c4   Section        4  entry5.o(.ARM.Collect$$$$00000004)
    .ARM.Collect$$$$00000007                 0x000000c8   Section        8  entry7.o(.ARM.Collect$$$$00000007)
    .ARM.Collect$$$$00002712                 0x000000d0   Section        4  entry2.o(.ARM.Collect$$$$00002712)
    __lit__00000000                          0x000000d0   Data           4  entry2.o(.ARM.Collect$$$$00002712)
    .text                                    0x000000d4   Section       28  startup_lpc11xx.o(.text)
    .text                                    0x000000f0   Section        0  system_lpc11xx.o(.text)
    .text                                    0x000001cc   Section        0  retarget.o(.text)
    .text                                    0x00000254   Section        0  key.o(.text)
    .text                                    0x000002fa   Section        0  iusefp.o(.text)
    i.__scatterload_null                     0x000002fa   Section        2  handlers.o(i.__scatterload_null)
    .ARM.__at_0x02FC                         0x000002fc   Section        4  startup_lpc11xx.o(.ARM.__at_0x02FC)
    .text                                    0x00000300   Section        0  gpio.o(.text)
    NVIC_EnableIRQ                           0x000007b1   Thumb Code    14  gpio.o(.text)
    .text                                    0x000007c8   Section        0  uart.o(.text)
    .text                                    0x00000a14   Section        0  timer32.o(.text)
    NVIC_EnableIRQ                           0x00000e93   Thumb Code    14  timer32.o(.text)
    .text                                    0x00000eac   Section        0  seg7led.o(.text)
    .text                                    0x00000f3c   Section      196  os_cpu_a.o(.text)
    .text                                    0x00001000   Section        0  os_cpu_c.o(.text)
    .text                                    0x0000112c   Section        0  os_core.o(.text)
    OS_SchedNew                              0x00001239   Thumb Code    90  os_core.o(.text)
    OS_InitTaskStat                          0x000016f9   Thumb Code    50  os_core.o(.text)
    OS_InitTaskIdle                          0x0000174d   Thumb Code    50  os_core.o(.text)
    OS_InitEventList                         0x00001791   Thumb Code    78  os_core.o(.text)
    OS_InitTCBList                           0x000017df   Thumb Code    88  os_core.o(.text)
    OS_InitRdyList                           0x00001837   Thumb Code    46  os_core.o(.text)
    OS_InitMisc                              0x00001865   Thumb Code    44  os_core.o(.text)
    .text                                    0x00001ee4   Section        0  os_flag.o(.text)
    OS_FlagTaskRdy                           0x0000205f   Thumb Code    92  os_flag.o(.text)
    OS_FlagBlock                             0x00002223   Thumb Code   136  os_flag.o(.text)
    .text                                    0x000026d8   Section        0  os_mbox.o(.text)
    .text                                    0x00002ad0   Section        0  os_mem.o(.text)
    .text                                    0x00002c84   Section        0  os_q.o(.text)
    .text                                    0x00003258   Section        0  os_sem.o(.text)
    .text                                    0x00003610   Section        0  os_task.o(.text)
    .text                                    0x00003e74   Section        0  os_time.o(.text)
    .text                                    0x00004030   Section        0  main.o(.text)
    NVIC_SetPriority                         0x000043c9   Thumb Code   472  main.o(.text)
    .text                                    0x000045a4   Section        0  lpc11c14_it.o(.text)
    .text                                    0x000045cc   Section        0  speaker_op.o(.text)
    .text                                    0x00004608   Section        0  uidiv.o(.text)
    .text                                    0x00004634   Section        0  uldiv.o(.text)
    .text                                    0x00004694   Section        0  dadd.o(.text)
    .text                                    0x000047f8   Section        0  dmul.o(.text)
    .text                                    0x000048c4   Section        0  ddiv.o(.text)
    .text                                    0x000049b4   Section        0  dfixul.o(.text)
    .text                                    0x000049f4   Section       40  cdrcmple.o(.text)
    .text                                    0x00004a1c   Section       36  init.o(.text)
    .text                                    0x00004a40   Section        0  llshl.o(.text)
    .text                                    0x00004a60   Section        0  llushr.o(.text)
    .text                                    0x00004a82   Section        0  llsshr.o(.text)
    .text                                    0x00004aa8   Section        0  depilogue.o(.text)
    i.__0printf$6                            0x00004b6c   Section        0  printf6.o(i.__0printf$6)
    i.__0vsnprintf                           0x00004b8c   Section        0  printfa.o(i.__0vsnprintf)
    i.__ARM_clz                              0x00004bb0   Section        0  depilogue.o(i.__ARM_clz)
    i.__ARM_common_switch8                   0x00004bde   Section        0  os_core.o(i.__ARM_common_switch8)
    i.__scatterload_copy                     0x00004bfa   Section       14  handlers.o(i.__scatterload_copy)
    i.__scatterload_zeroinit                 0x00004c08   Section       14  handlers.o(i.__scatterload_zeroinit)
    i._fp_digits                             0x00004c18   Section        0  printfa.o(i._fp_digits)
    _fp_digits                               0x00004c19   Thumb Code   312  printfa.o(i._fp_digits)
    i._printf_core                           0x00004d6c   Section        0  printf6.o(i._printf_core)
    _printf_core                             0x00004d6d   Thumb Code   770  printf6.o(i._printf_core)
    i._printf_core                           0x00005074   Section        0  printfa.o(i._printf_core)
    _printf_core                             0x00005075   Thumb Code  1774  printfa.o(i._printf_core)
    i._printf_post_padding                   0x00005774   Section        0  printf6.o(i._printf_post_padding)
    _printf_post_padding                     0x00005775   Thumb Code    32  printf6.o(i._printf_post_padding)
    i._printf_post_padding                   0x00005794   Section        0  printfa.o(i._printf_post_padding)
    _printf_post_padding                     0x00005795   Thumb Code    32  printfa.o(i._printf_post_padding)
    i._printf_pre_padding                    0x000057b4   Section        0  printf6.o(i._printf_pre_padding)
    _printf_pre_padding                      0x000057b5   Thumb Code    42  printf6.o(i._printf_pre_padding)
    i._printf_pre_padding                    0x000057de   Section        0  printfa.o(i._printf_pre_padding)
    _printf_pre_padding                      0x000057df   Thumb Code    42  printfa.o(i._printf_pre_padding)
    i._snputc                                0x00005808   Section        0  printfa.o(i._snputc)
    _snputc                                  0x00005809   Thumb Code    22  printfa.o(i._snputc)
    .constdata                               0x00005820   Section       16  gpio.o(.constdata)
    LPC_GPIO                                 0x00005820   Data          16  gpio.o(.constdata)
    .constdata                               0x00005830   Section       48  seg7led.o(.constdata)
    LPC_GPIO                                 0x00005830   Data          16  seg7led.o(.constdata)
    .constdata                               0x00005860   Section      256  os_core.o(.constdata)
    .data                                    0x10000000   Section       12  system_lpc11xx.o(.data)
    .data                                    0x1000000c   Section       32  gpio.o(.data)
    .data                                    0x1000002c   Section       16  uart.o(.data)
    .data                                    0x1000003c   Section        8  retarget.o(.data)
    .data                                    0x10000044   Section       24  timer32.o(.data)
    .data                                    0x1000005c   Section       72  os_core.o(.data)
    .data                                    0x100000a4   Section        8  main.o(.data)
    .data                                    0x100000ac   Section        4  speaker_op.o(.data)
    .bss                                     0x100000b0   Section       64  uart.o(.bss)
    .bss                                     0x100000f0   Section     3268  os_core.o(.bss)
    .bss                                     0x10000db4   Section     1792  main.o(.bss)
    STACK                                    0x100014b8   Section      256  startup_lpc11xx.o(STACK)

    Global Symbols

    Symbol Name                              Value     Ov Type        Size  Object(Section)

    BuildAttributes$$THM_ISAv3M$S$PE$A:L22$X:L11$S22$IEEE1$IW$USESV6$~STKCKD$USESV7$~SHL$OSPACE$ROPI$EBA8$MICROLIB$REQ8$PRES8$EABIv2 0x00000000   Number         0  anon$$obj.o ABSOLUTE
    __ARM_use_no_argv                        0x00000000   Number         0  main.o ABSOLUTE
    __Vectors                                0x00000000   Data           4  startup_lpc11xx.o(RESET)
    __use_no_errno                           0x00000000   Number         0  useno.o ABSOLUTE
    __use_no_exception_handling              0x00000000   Number         0  useno.o ABSOLUTE
    __use_no_fp                              0x00000000   Number         0  useno.o ABSOLUTE
    __use_no_heap                            0x00000000   Number         0  useno.o ABSOLUTE
    __use_no_heap_region                     0x00000000   Number         0  useno.o ABSOLUTE
    __use_no_semihosting                     0x00000000   Number         0  useno.o ABSOLUTE
    __use_no_semihosting_swi                 0x00000000   Number         0  useno.o ABSOLUTE
    __use_no_signal_handling                 0x00000000   Number         0  useno.o ABSOLUTE
    _printf_a                                0x00000000   Number         0  stubs.o ABSOLUTE
    _printf_c                                0x00000000   Number         0  stubs.o ABSOLUTE
    _printf_charcount                        0x00000000   Number         0  stubs.o ABSOLUTE
    _printf_d                                0x00000000   Number         0  stubs.o ABSOLUTE
    _printf_e                                0x00000000   Number         0  stubs.o ABSOLUTE
    _printf_f                                0x00000000   Number         0  stubs.o ABSOLUTE
    _printf_flags                            0x00000000   Number         0  stubs.o ABSOLUTE
    _printf_fp_dec                           0x00000000   Number         0  stubs.o ABSOLUTE
    _printf_fp_hex                           0x00000000   Number         0  stubs.o ABSOLUTE
    _printf_g                                0x00000000   Number         0  stubs.o ABSOLUTE
    _printf_i                                0x00000000   Number         0  stubs.o ABSOLUTE
    _printf_int_dec                          0x00000000   Number         0  stubs.o ABSOLUTE
    _printf_l                                0x00000000   Number         0  stubs.o ABSOLUTE
    _printf_lc                               0x00000000   Number         0  stubs.o ABSOLUTE
    _printf_ll                               0x00000000   Number         0  stubs.o ABSOLUTE
    _printf_lld                              0x00000000   Number         0  stubs.o ABSOLUTE
    _printf_lli                              0x00000000   Number         0  stubs.o ABSOLUTE
    _printf_llo                              0x00000000   Number         0  stubs.o ABSOLUTE
    _printf_llu                              0x00000000   Number         0  stubs.o ABSOLUTE
    _printf_llx                              0x00000000   Number         0  stubs.o ABSOLUTE
    _printf_longlong_dec                     0x00000000   Number         0  stubs.o ABSOLUTE
    _printf_longlong_hex                     0x00000000   Number         0  stubs.o ABSOLUTE
    _printf_longlong_oct                     0x00000000   Number         0  stubs.o ABSOLUTE
    _printf_ls                               0x00000000   Number         0  stubs.o ABSOLUTE
    _printf_mbtowc                           0x00000000   Number         0  stubs.o ABSOLUTE
    _printf_n                                0x00000000   Number         0  stubs.o ABSOLUTE
    _printf_o                                0x00000000   Number         0  stubs.o ABSOLUTE
    _printf_p                                0x00000000   Number         0  stubs.o ABSOLUTE
    _printf_percent                          0x00000000   Number         0  stubs.o ABSOLUTE
    _printf_pre_padding                      0x00000000   Number         0  stubs.o ABSOLUTE
    _printf_return_value                     0x00000000   Number         0  stubs.o ABSOLUTE
    _printf_s                                0x00000000   Number         0  stubs.o ABSOLUTE
    _printf_sizespec                         0x00000000   Number         0  stubs.o ABSOLUTE
    _printf_str                              0x00000000   Number         0  stubs.o ABSOLUTE
    _printf_truncate_signed                  0x00000000   Number         0  stubs.o ABSOLUTE
    _printf_truncate_unsigned                0x00000000   Number         0  stubs.o ABSOLUTE
    _printf_u                                0x00000000   Number         0  stubs.o ABSOLUTE
    _printf_wc                               0x00000000   Number         0  stubs.o ABSOLUTE
    _printf_wctomb                           0x00000000   Number         0  stubs.o ABSOLUTE
    _printf_widthprec                        0x00000000   Number         0  stubs.o ABSOLUTE
    _printf_x                                0x00000000   Number         0  stubs.o ABSOLUTE
    __decompress                              - Undefined Weak Reference
    __main                                   0x000000c1   Thumb Code     0  entry.o(.ARM.Collect$$$$00000000)
    _main_stk                                0x000000c1   Thumb Code     0  entry2.o(.ARM.Collect$$$$00000001)
    _main_scatterload                        0x000000c5   Thumb Code     0  entry5.o(.ARM.Collect$$$$00000004)
    __main_after_scatterload                 0x000000c9   Thumb Code     0  entry5.o(.ARM.Collect$$$$00000004)
    _main_init                               0x000000c9   Thumb Code     0  entry7.o(.ARM.Collect$$$$00000007)
    Reset_Handler                            0x000000d5   Thumb Code     4  startup_lpc11xx.o(.text)
    ADC_IRQHandler                           0x000000eb   Thumb Code     0  startup_lpc11xx.o(.text)
    BOD_IRQHandler                           0x000000eb   Thumb Code     0  startup_lpc11xx.o(.text)
    CAN_IRQHandler                           0x000000eb   Thumb Code     0  startup_lpc11xx.o(.text)
    FMC_IRQHandler                           0x000000eb   Thumb Code     0  startup_lpc11xx.o(.text)
    I2C_IRQHandler                           0x000000eb   Thumb Code     0  startup_lpc11xx.o(.text)
    SSP0_IRQHandler                          0x000000eb   Thumb Code     0  startup_lpc11xx.o(.text)
    SSP1_IRQHandler                          0x000000eb   Thumb Code     0  startup_lpc11xx.o(.text)
    TIMER16_0_IRQHandler                     0x000000eb   Thumb Code     0  startup_lpc11xx.o(.text)
    TIMER16_1_IRQHandler                     0x000000eb   Thumb Code     0  startup_lpc11xx.o(.text)
    USB_FIQHandler                           0x000000eb   Thumb Code     0  startup_lpc11xx.o(.text)
    USB_IRQHandler                           0x000000eb   Thumb Code     0  startup_lpc11xx.o(.text)
    WAKEUP_IRQHandler                        0x000000eb   Thumb Code     0  startup_lpc11xx.o(.text)
    WDT_IRQHandler                           0x000000eb   Thumb Code     0  startup_lpc11xx.o(.text)
    Main_PLL_Setup                           0x000000f1   Thumb Code   136  system_lpc11xx.o(.text)
    SystemInit                               0x00000179   Thumb Code    60  system_lpc11xx.o(.text)
    PutCh                                    0x000001cd   Thumb Code    18  retarget.o(.text)
    fputc                                    0x000001df   Thumb Code    14  retarget.o(.text)
    GetCh                                    0x000001ed   Thumb Code    34  retarget.o(.text)
    fgetc                                    0x0000020f   Thumb Code    16  retarget.o(.text)
    _ttywrch                                 0x0000021f   Thumb Code    12  retarget.o(.text)
    ferror                                   0x0000022b   Thumb Code     8  retarget.o(.text)
    _sys_exit                                0x00000233   Thumb Code     4  retarget.o(.text)
    GetCh_NoIRQ                              0x00000237   Thumb Code    18  retarget.o(.text)
    KEY_Init                                 0x00000255   Thumb Code    64  key.o(.text)
    KEY_Read                                 0x00000295   Thumb Code   102  key.o(.text)
    __I$use$fp                               0x000002fb   Thumb Code     0  iusefp.o(.text)
    __scatterload_null                       0x000002fb   Thumb Code     2  handlers.o(i.__scatterload_null)
    GPIOIntClear                             0x00000301   Thumb Code    88  gpio.o(.text)
    GPIOIntStatus                            0x00000359   Thumb Code    94  gpio.o(.text)
    PIOINT0_IRQHandler                       0x000003b7   Thumb Code    46  gpio.o(.text)
    PIOINT1_IRQHandler                       0x000003e5   Thumb Code    46  gpio.o(.text)
    PIOINT2_IRQHandler                       0x00000413   Thumb Code    46  gpio.o(.text)
    PIOINT3_IRQHandler                       0x00000441   Thumb Code    46  gpio.o(.text)
    GPIOInit                                 0x0000046f   Thumb Code    40  gpio.o(.text)
    GPIOSetInterrupt                         0x00000497   Thumb Code   446  gpio.o(.text)
    GPIOIntEnable                            0x00000655   Thumb Code    88  gpio.o(.text)
    GPIOIntDisable                           0x000006ad   Thumb Code   142  gpio.o(.text)
    GPIOSetValue                             0x0000073b   Thumb Code    22  gpio.o(.text)
    GPIOGetValue                             0x00000751   Thumb Code    18  gpio.o(.text)
    GPIOSetDir                               0x00000763   Thumb Code    78  gpio.o(.text)
    UART_IRQHandler                          0x000007c9   Thumb Code   180  uart.o(.text)
    UARTInit                                 0x0000087d   Thumb Code   202  uart.o(.text)
    UARTSend                                 0x00000947   Thumb Code    30  uart.o(.text)
    UART0_PutChar                            0x00000965   Thumb Code    18  uart.o(.text)
    UART0_PutString                          0x00000977   Thumb Code    22  uart.o(.text)
    UART0_printf                             0x0000098d   Thumb Code    40  uart.o(.text)
    UART0_GetChar                            0x000009b5   Thumb Code    54  uart.o(.text)
    delay32Ms                                0x00000a15   Thumb Code   122  timer32.o(.text)
    TIMER32_0_IRQHandler                     0x00000a8f   Thumb Code    54  timer32.o(.text)
    TIMER32_1_IRQHandler                     0x00000ac5   Thumb Code    54  timer32.o(.text)
    enable_timer32                           0x00000afb   Thumb Code    20  timer32.o(.text)
    disable_timer32                          0x00000b0f   Thumb Code    20  timer32.o(.text)
    reset_timer32                            0x00000b23   Thumb Code    34  timer32.o(.text)
    init_timer32                             0x00000b45   Thumb Code   226  timer32.o(.text)
    init_timer32_a1                          0x00000c27   Thumb Code    88  timer32.o(.text)
    init_timer32PWM                          0x00000c7f   Thumb Code   434  timer32.o(.text)
    setMatch_timer32PWM                      0x00000e31   Thumb Code    98  timer32.o(.text)
    Seg7Led_Init                             0x00000ead   Thumb Code    54  seg7led.o(.text)
    Seg7Led_Put                              0x00000ee3   Thumb Code    86  seg7led.o(.text)
    OS_CPU_SR_Save                           0x00000f3d   Thumb Code     0  os_cpu_a.o(.text)
    OS_CPU_SR_Restore                        0x00000f45   Thumb Code     0  os_cpu_a.o(.text)
    OSStartHighRdy                           0x00000f4b   Thumb Code     0  os_cpu_a.o(.text)
    OSCtxSw                                  0x00000f6b   Thumb Code     0  os_cpu_a.o(.text)
    OSIntCtxSw                               0x00000f73   Thumb Code     0  os_cpu_a.o(.text)
    OS_CPU_PendSVHandler                     0x00000f7b   Thumb Code     0  os_cpu_a.o(.text)
    OSInitHookBegin                          0x00001001   Thumb Code     2  os_cpu_c.o(.text)
    OSInitHookEnd                            0x00001003   Thumb Code     2  os_cpu_c.o(.text)
    OSTaskCreateHook                         0x00001005   Thumb Code     2  os_cpu_c.o(.text)
    OSTaskDelHook                            0x00001007   Thumb Code     2  os_cpu_c.o(.text)
    OSTaskIdleHook                           0x00001009   Thumb Code     2  os_cpu_c.o(.text)
    OSTaskStatHook                           0x0000100b   Thumb Code     2  os_cpu_c.o(.text)
    OSTaskStkInit                            0x0000100d   Thumb Code   132  os_cpu_c.o(.text)
    OSTaskSwHook                             0x00001091   Thumb Code     2  os_cpu_c.o(.text)
    OSTCBInitHook                            0x00001093   Thumb Code     2  os_cpu_c.o(.text)
    OSTimeTickHook                           0x00001095   Thumb Code     2  os_cpu_c.o(.text)
    OS_CPU_SysTickHandler                    0x00001097   Thumb Code    34  os_cpu_c.o(.text)
    OS_CPU_SysTickInit                       0x000010b9   Thumb Code    54  os_cpu_c.o(.text)
    OS_StrLen                                0x0000112d   Thumb Code    20  os_core.o(.text)
    OSEventNameGet                           0x00001141   Thumb Code    96  os_core.o(.text)
    OSEventNameSet                           0x000011a1   Thumb Code    82  os_core.o(.text)
    OS_EventTaskRemoveMulti                  0x000011f3   Thumb Code    70  os_core.o(.text)
    OS_Sched                                 0x00001293   Thumb Code    92  os_core.o(.text)
    OS_EventTaskWaitMulti                    0x000012ef   Thumb Code   140  os_core.o(.text)
    OSEventPendMulti                         0x0000137b   Thumb Code   720  os_core.o(.text)
    OS_TaskStatStkChk                        0x0000164b   Thumb Code    58  os_core.o(.text)
    OS_TaskStat                              0x00001685   Thumb Code   116  os_core.o(.text)
    OS_TaskIdle                              0x0000172b   Thumb Code    34  os_core.o(.text)
    OS_MemClr                                0x0000177f   Thumb Code    18  os_core.o(.text)
    OSInit                                   0x00001891   Thumb Code    48  os_core.o(.text)
    OSIntEnter                               0x000018c1   Thumb Code    28  os_core.o(.text)
    OSIntExit                                0x000018dd   Thumb Code   268  os_core.o(.text)
    OSSchedLock                              0x000019e9   Thumb Code    52  os_core.o(.text)
    OSSchedUnlock                            0x00001a1d   Thumb Code    88  os_core.o(.text)
    OSStart                                  0x00001a75   Thumb Code    50  os_core.o(.text)
    OSStatInit                               0x00001aa7   Thumb Code    62  os_core.o(.text)
    OSTimeTick                               0x00001ae5   Thumb Code   224  os_core.o(.text)
    OSVersion                                0x00001bc5   Thumb Code     6  os_core.o(.text)
    OS_Dummy                                 0x00001bcb   Thumb Code     2  os_core.o(.text)
    OS_EventTaskRemove                       0x00001bcd   Thumb Code    48  os_core.o(.text)
    OS_EventTaskRdy                          0x00001bfd   Thumb Code   190  os_core.o(.text)
    OS_EventTaskWait                         0x00001cbb   Thumb Code   116  os_core.o(.text)
    OS_EventWaitListInit                     0x00001d2f   Thumb Code    32  os_core.o(.text)
    OS_MemCopy                               0x00001d4f   Thumb Code    20  os_core.o(.text)
    OS_TCBInit                               0x00001d63   Thumb Code   360  os_core.o(.text)
    OSFlagAccept                             0x00001ee5   Thumb Code   250  os_flag.o(.text)
    OSFlagCreate                             0x00001fdf   Thumb Code    86  os_flag.o(.text)
    OS_FlagUnlink                            0x00002035   Thumb Code    42  os_flag.o(.text)
    OSFlagDel                                0x000020bb   Thumb Code   218  os_flag.o(.text)
    OSFlagNameGet                            0x00002195   Thumb Code    78  os_flag.o(.text)
    OSFlagNameSet                            0x000021e3   Thumb Code    64  os_flag.o(.text)
    OSFlagPend                               0x000022ab   Thumb Code   608  os_flag.o(.text)
    OSFlagPendGetFlagsRdy                    0x0000250b   Thumb Code    26  os_flag.o(.text)
    OSFlagPost                               0x00002525   Thumb Code   304  os_flag.o(.text)
    OSFlagQuery                              0x00002655   Thumb Code    44  os_flag.o(.text)
    OS_FlagInit                              0x00002681   Thumb Code    70  os_flag.o(.text)
    OSMboxAccept                             0x000026d9   Thumb Code    38  os_mbox.o(.text)
    OSMboxCreate                             0x000026ff   Thumb Code    78  os_mbox.o(.text)
    OSMboxDel                                0x0000274d   Thumb Code   212  os_mbox.o(.text)
    OSMboxPend                               0x00002821   Thumb Code   258  os_mbox.o(.text)
    OSMboxPendAbort                          0x00002923   Thumb Code   128  os_mbox.o(.text)
    OSMboxPost                               0x000029a3   Thumb Code    84  os_mbox.o(.text)
    OSMboxPostOpt                            0x000029f7   Thumb Code   120  os_mbox.o(.text)
    OSMboxQuery                              0x00002a6f   Thumb Code    78  os_mbox.o(.text)
    OSMemCreate                              0x00002ad1   Thumb Code   124  os_mem.o(.text)
    OSMemGet                                 0x00002b4d   Thumb Code    60  os_mem.o(.text)
    OSMemNameGet                             0x00002b89   Thumb Code    58  os_mem.o(.text)
    OSMemNameSet                             0x00002bc3   Thumb Code    46  os_mem.o(.text)
    OSMemPut                                 0x00002bf1   Thumb Code    54  os_mem.o(.text)
    OSMemQuery                               0x00002c27   Thumb Code    52  os_mem.o(.text)
    OS_MemInit                               0x00002c5b   Thumb Code    24  os_mem.o(.text)
    OSQAccept                                0x00002c85   Thumb Code    86  os_q.o(.text)
    OSQCreate                                0x00002cdb   Thumb Code   148  os_q.o(.text)
    OSQDel                                   0x00002d6f   Thumb Code   244  os_q.o(.text)
    OSQFlush                                 0x00002e63   Thumb Code    36  os_q.o(.text)
    OSQPend                                  0x00002e87   Thumb Code   286  os_q.o(.text)
    OSQPendAbort                             0x00002fa5   Thumb Code   128  os_q.o(.text)
    OSQPost                                  0x00003025   Thumb Code   112  os_q.o(.text)
    OSQPostFront                             0x00003095   Thumb Code   138  os_q.o(.text)
    OSQPostOpt                               0x0000311f   Thumb Code   180  os_q.o(.text)
    OSQQuery                                 0x000031d3   Thumb Code   112  os_q.o(.text)
    OS_QInit                                 0x00003243   Thumb Code    14  os_q.o(.text)
    OSSemAccept                              0x00003259   Thumb Code    44  os_sem.o(.text)
    OSSemCreate                              0x00003285   Thumb Code    78  os_sem.o(.text)
    OSSemDel                                 0x000032d3   Thumb Code   212  os_sem.o(.text)
    OSSemPend                                0x000033a7   Thumb Code   234  os_sem.o(.text)
    OSSemPendAbort                           0x00003491   Thumb Code   128  os_sem.o(.text)
    OSSemPost                                0x00003511   Thumb Code    88  os_sem.o(.text)
    OSSemQuery                               0x00003569   Thumb Code    78  os_sem.o(.text)
    OSSemSet                                 0x000035b7   Thumb Code    66  os_sem.o(.text)
    OSTaskChangePrio                         0x00003611   Thumb Code   446  os_task.o(.text)
    OSTaskCreate                             0x000037cf   Thumb Code   150  os_task.o(.text)
    OS_TaskStkClr                            0x00003865   Thumb Code    26  os_task.o(.text)
    OSTaskCreateExt                          0x0000387f   Thumb Code   160  os_task.o(.text)
    OSTaskDel                                0x0000391f   Thumb Code   358  os_task.o(.text)
    OSTaskDelReq                             0x00003a85   Thumb Code    98  os_task.o(.text)
    OSTaskNameGet                            0x00003ae7   Thumb Code   114  os_task.o(.text)
    OSTaskNameSet                            0x00003b59   Thumb Code    98  os_task.o(.text)
    OSTaskResume                             0x00003bbb   Thumb Code   166  os_task.o(.text)
    OSTaskStkChk                             0x00003c61   Thumb Code   130  os_task.o(.text)
    OSTaskSuspend                            0x00003ce3   Thumb Code   154  os_task.o(.text)
    OSTaskQuery                              0x00003d7d   Thumb Code    80  os_task.o(.text)
    OSTaskRegGet                             0x00003dcd   Thumb Code    58  os_task.o(.text)
    OSTaskRegSet                             0x00003e07   Thumb Code    98  os_task.o(.text)
    OS_TaskReturn                            0x00003e69   Thumb Code    10  os_task.o(.text)
    OSTimeDly                                0x00003e75   Thumb Code   110  os_time.o(.text)
    OSTimeDlyHMSM                            0x00003ee3   Thumb Code    82  os_time.o(.text)
    OSTimeDlyResume                          0x00003f35   Thumb Code   176  os_time.o(.text)
    OSTimeGet                                0x00003fe5   Thumb Code    24  os_time.o(.text)
    OSTimeSet                                0x00003ffd   Thumb Code    24  os_time.o(.text)
    Task_Monitor                             0x00004031   Thumb Code   274  main.o(.text)
    Task_BeepFan                             0x00004143   Thumb Code    62  main.o(.text)
    Task_Key                                 0x00004181   Thumb Code    42  main.o(.text)
    Task_Seg7Led                             0x000041ab   Thumb Code    36  main.o(.text)
    Task_Led                                 0x000041cf   Thumb Code    96  main.o(.text)
    Task_Start                               0x0000422f   Thumb Code    20  main.o(.text)
    main                                     0x00004243   Thumb Code   390  main.o(.text)
    NMI_Handler                              0x000045a5   Thumb Code     2  lpc11c14_it.o(.text)
    HardFault_Handler                        0x000045a7   Thumb Code     4  lpc11c14_it.o(.text)
    MemManage_Handler                        0x000045ab   Thumb Code     4  lpc11c14_it.o(.text)
    BusFault_Handler                         0x000045af   Thumb Code     4  lpc11c14_it.o(.text)
    UsageFault_Handler                       0x000045b3   Thumb Code     4  lpc11c14_it.o(.text)
    SVC_Handler                              0x000045b7   Thumb Code     2  lpc11c14_it.o(.text)
    DebugMon_Handler                         0x000045b9   Thumb Code     2  lpc11c14_it.o(.text)
    PendSV_Handler                           0x000045bb   Thumb Code     8  lpc11c14_it.o(.text)
    SysTick_Handler                          0x000045c3   Thumb Code     8  lpc11c14_it.o(.text)
    speaker_op                               0x000045cd   Thumb Code    50  speaker_op.o(.text)
    __aeabi_uidiv                            0x00004609   Thumb Code     0  uidiv.o(.text)
    __aeabi_uidivmod                         0x00004609   Thumb Code    44  uidiv.o(.text)
    __aeabi_uldivmod                         0x00004635   Thumb Code    96  uldiv.o(.text)
    __aeabi_dadd                             0x00004695   Thumb Code   326  dadd.o(.text)
    __aeabi_dsub                             0x000047db   Thumb Code    12  dadd.o(.text)
    __aeabi_drsub                            0x000047e7   Thumb Code    12  dadd.o(.text)
    __aeabi_dmul                             0x000047f9   Thumb Code   198  dmul.o(.text)
    __aeabi_ddiv                             0x000048c5   Thumb Code   234  ddiv.o(.text)
    __aeabi_d2ulz                            0x000049b5   Thumb Code    54  dfixul.o(.text)
    __aeabi_cdrcmple                         0x000049f5   Thumb Code    38  cdrcmple.o(.text)
    __scatterload                            0x00004a1d   Thumb Code    28  init.o(.text)
    __scatterload_rt2                        0x00004a1d   Thumb Code     0  init.o(.text)
    __aeabi_llsl                             0x00004a41   Thumb Code    32  llshl.o(.text)
    _ll_shift_l                              0x00004a41   Thumb Code     0  llshl.o(.text)
    __aeabi_llsr                             0x00004a61   Thumb Code    34  llushr.o(.text)
    _ll_ushift_r                             0x00004a61   Thumb Code     0  llushr.o(.text)
    __aeabi_lasr                             0x00004a83   Thumb Code    38  llsshr.o(.text)
    _ll_sshift_r                             0x00004a83   Thumb Code     0  llsshr.o(.text)
    _double_round                            0x00004aa9   Thumb Code    26  depilogue.o(.text)
    _double_epilogue                         0x00004ac3   Thumb Code   170  depilogue.o(.text)
    __0printf$6                              0x00004b6d   Thumb Code    24  printf6.o(i.__0printf$6)
    __1printf$6                              0x00004b6d   Thumb Code     0  printf6.o(i.__0printf$6)
    __2printf                                0x00004b6d   Thumb Code     0  printf6.o(i.__0printf$6)
    __0vsnprintf                             0x00004b8d   Thumb Code    32  printfa.o(i.__0vsnprintf)
    __1vsnprintf                             0x00004b8d   Thumb Code     0  printfa.o(i.__0vsnprintf)
    __2vsnprintf                             0x00004b8d   Thumb Code     0  printfa.o(i.__0vsnprintf)
    __c89vsnprintf                           0x00004b8d   Thumb Code     0  printfa.o(i.__0vsnprintf)
    vsnprintf                                0x00004b8d   Thumb Code     0  printfa.o(i.__0vsnprintf)
    __ARM_clz                                0x00004bb1   Thumb Code    46  depilogue.o(i.__ARM_clz)
    __ARM_common_switch8                     0x00004bdf   Thumb Code    28  os_core.o(i.__ARM_common_switch8)
    __scatterload_copy                       0x00004bfb   Thumb Code    14  handlers.o(i.__scatterload_copy)
    __scatterload_zeroinit                   0x00004c09   Thumb Code    14  handlers.o(i.__scatterload_zeroinit)
    segcode                                  0x00005840   Data          32  seg7led.o(.constdata)
    OSUnMapTbl                               0x00005860   Data         256  os_core.o(.constdata)
    Region$$Table$$Base                      0x00005960   Number         0  anon$$obj.o(Region$$Table)
    Region$$Table$$Limit                     0x00005980   Number         0  anon$$obj.o(Region$$Table)
    ClockSource                              0x10000000   Data           4  system_lpc11xx.o(.data)
    SystemFrequency                          0x10000004   Data           4  system_lpc11xx.o(.data)
    SystemAHBFrequency                       0x10000008   Data           4  system_lpc11xx.o(.data)
    gpio0_counter                            0x1000000c   Data           4  gpio.o(.data)
    p0_1_counter                             0x10000010   Data           4  gpio.o(.data)
    gpio1_counter                            0x10000014   Data           4  gpio.o(.data)
    p1_1_counter                             0x10000018   Data           4  gpio.o(.data)
    gpio2_counter                            0x1000001c   Data           4  gpio.o(.data)
    p2_1_counter                             0x10000020   Data           4  gpio.o(.data)
    gpio3_counter                            0x10000024   Data           4  gpio.o(.data)
    p3_1_counter                             0x10000028   Data           4  gpio.o(.data)
    UARTTxEmpty                              0x1000002c   Data           1  uart.o(.data)
    UARTCount                                0x10000030   Data           4  uart.o(.data)
    UART_op                                  0x10000034   Data           4  uart.o(.data)
    UARTStatus                               0x10000038   Data           4  uart.o(.data)
    __stdout                                 0x1000003c   Data           4  retarget.o(.data)
    __stdin                                  0x10000040   Data           4  retarget.o(.data)
    timer32_0_counter                        0x10000044   Data           4  timer32.o(.data)
    timer32_1_counter                        0x10000048   Data           4  timer32.o(.data)
    timer32_0_capture                        0x1000004c   Data           4  timer32.o(.data)
    timer32_1_capture                        0x10000050   Data           4  timer32.o(.data)
    timer32_0_period                         0x10000054   Data           4  timer32.o(.data)
    timer32_1_period                         0x10000058   Data           4  timer32.o(.data)
    OSCtxSwCtr                               0x1000005c   Data           4  os_core.o(.data)
    OSEventFreeList                          0x10000060   Data           4  os_core.o(.data)
    OSFlagFreeList                           0x10000064   Data           4  os_core.o(.data)
    OSCPUUsage                               0x10000068   Data           1  os_core.o(.data)
    OSIdleCtrMax                             0x1000006c   Data           4  os_core.o(.data)
    OSIdleCtrRun                             0x10000070   Data           4  os_core.o(.data)
    OSStatRdy                                0x10000074   Data           1  os_core.o(.data)
    OSIntNesting                             0x10000075   Data           1  os_core.o(.data)
    OSLockNesting                            0x10000076   Data           1  os_core.o(.data)
    OSPrioCur                                0x10000077   Data           1  os_core.o(.data)
    OSPrioHighRdy                            0x10000078   Data           1  os_core.o(.data)
    OSRdyGrp                                 0x1000007a   Data           2  os_core.o(.data)
    OSRunning                                0x1000007c   Data           1  os_core.o(.data)
    OSTaskCtr                                0x1000007d   Data           1  os_core.o(.data)
    OSIdleCtr                                0x10000080   Data           4  os_core.o(.data)
    OSTCBCur                                 0x10000084   Data           4  os_core.o(.data)
    OSTCBFreeList                            0x10000088   Data           4  os_core.o(.data)
    OSTCBHighRdy                             0x1000008c   Data           4  os_core.o(.data)
    OSTCBList                                0x10000090   Data           4  os_core.o(.data)
    OSTickStepState                          0x10000094   Data           1  os_core.o(.data)
    OSMemFreeList                            0x10000098   Data           4  os_core.o(.data)
    OSQFreeList                              0x1000009c   Data           4  os_core.o(.data)
    OSTime                                   0x100000a0   Data           4  os_core.o(.data)
    Key_Sem                                  0x100000a4   Data           4  main.o(.data)
    Led_Mbox                                 0x100000a8   Data           4  main.o(.data)
    period                                   0x100000ac   Data           4  speaker_op.o(.data)
    UARTBuffer                               0x100000b0   Data          64  uart.o(.bss)
    OSEventTbl                               0x100000f0   Data         480  os_core.o(.bss)
    OSFlagTbl                                0x100002d0   Data          80  os_core.o(.bss)
    OSTaskStatStk                            0x10000320   Data         256  os_core.o(.bss)
    OSRdyTbl                                 0x10000420   Data          32  os_core.o(.bss)
    OSTaskIdleStk                            0x10000440   Data         256  os_core.o(.bss)
    OSTCBPrioTbl                             0x10000540   Data        1012  os_core.o(.bss)
    OSTCBTbl                                 0x10000934   Data        1104  os_core.o(.bss)
    OSMemTbl                                 0x10000d84   Data          24  os_core.o(.bss)
    OSQTbl                                   0x10000d9c   Data          24  os_core.o(.bss)
    Task_Start_STK                           0x10000db4   Data         256  main.o(.bss)
    Task_Led_STK                             0x10000eb4   Data         256  main.o(.bss)
    Task_Seg7Led_STK                         0x10000fb4   Data         256  main.o(.bss)
    Task_Key_STK                             0x100010b4   Data         256  main.o(.bss)
    Task_BeepFan_STK                         0x100011b4   Data         256  main.o(.bss)
    Task_Monitor_STK                         0x100012b4   Data         512  main.o(.bss)
    __initial_sp                             0x100015b8   Data           0  startup_lpc11xx.o(STACK)



==============================================================================

Memory Map of the image

  Image Entry point : 0x000000c1

  Load Region LR_IROM1 (Base: 0x00000000, Size: 0x00005a30, Max: 0x00008000, ABSOLUTE)

    Execution Region ER_IROM1 (Base: 0x00000000, Size: 0x00005980, Max: 0x00008000, ABSOLUTE)

    Base Addr    Size         Type   Attr      Idx    E Section Name        Object

    0x00000000   0x000000c0   Data   RO            3    RESET               startup_lpc11xx.o
    0x000000c0   0x00000000   Code   RO          417  * .ARM.Collect$$$$00000000  mc_p.l(entry.o)
    0x000000c0   0x00000004   Code   RO          683    .ARM.Collect$$$$00000001  mc_p.l(entry2.o)
    0x000000c4   0x00000004   Code   RO          686    .ARM.Collect$$$$00000004  mc_p.l(entry5.o)
    0x000000c8   0x00000008   Code   RO          687    .ARM.Collect$$$$00000007  mc_p.l(entry7.o)
    0x000000d0   0x00000004   Code   RO          684    .ARM.Collect$$$$00002712  mc_p.l(entry2.o)
    0x000000d4   0x0000001c   Code   RO            5    .text               startup_lpc11xx.o
    0x000000f0   0x000000dc   Code   RO           27    .text               system_lpc11xx.o
    0x000001cc   0x00000088   Code   RO          106    .text               retarget.o
    0x00000254   0x000000a6   Code   RO          147    .text               key.o
    0x000002fa   0x00000000   Code   RO          690    .text               mc_p.l(iusefp.o)
    0x000002fa   0x00000002   Code   RO          716    i.__scatterload_null  mc_p.l(handlers.o)
    0x000002fc   0x00000004   Code   RO            4    .ARM.__at_0x02FC    startup_lpc11xx.o
    0x00000300   0x000004c8   Code   RO           51    .text               gpio.o
    0x000007c8   0x0000024c   Code   RO           77    .text               uart.o
    0x00000a14   0x00000498   Code   RO          129    .text               timer32.o
    0x00000eac   0x00000090   Code   RO          173    .text               seg7led.o
    0x00000f3c   0x000000c4   Code   RO          191    .text               os_cpu_a.o
    0x00001000   0x0000012c   Code   RO          194    .text               os_cpu_c.o
    0x0000112c   0x00000db8   Code   RO          232    .text               os_core.o
    0x00001ee4   0x000007f4   Code   RO          263    .text               os_flag.o
    0x000026d8   0x000003f8   Code   RO          275    .text               os_mbox.o
    0x00002ad0   0x000001b4   Code   RO          287    .text               os_mem.o
    0x00002c84   0x000005d4   Code   RO          311    .text               os_q.o
    0x00003258   0x000003b8   Code   RO          323    .text               os_sem.o
    0x00003610   0x00000862   Code   RO          335    .text               os_task.o
    0x00003e72   0x00000002   PAD
    0x00003e74   0x000001bc   Code   RO          347    .text               os_time.o
    0x00004030   0x00000574   Code   RO          359    .text               main.o
    0x000045a4   0x00000026   Code   RO          386    .text               lpc11c14_it.o
    0x000045ca   0x00000002   PAD
    0x000045cc   0x0000003c   Code   RO          401    .text               speaker_op.o
    0x00004608   0x0000002c   Code   RO          420    .text               mc_p.l(uidiv.o)
    0x00004634   0x00000060   Code   RO          688    .text               mc_p.l(uldiv.o)
    0x00004694   0x00000164   Code   RO          691    .text               mf_p.l(dadd.o)
    0x000047f8   0x000000cc   Code   RO          693    .text               mf_p.l(dmul.o)
    0x000048c4   0x000000f0   Code   RO          695    .text               mf_p.l(ddiv.o)
    0x000049b4   0x00000040   Code   RO          697    .text               mf_p.l(dfixul.o)
    0x000049f4   0x00000028   Code   RO          699    .text               mf_p.l(cdrcmple.o)
    0x00004a1c   0x00000024   Code   RO          701    .text               mc_p.l(init.o)
    0x00004a40   0x00000020   Code   RO          703    .text               mc_p.l(llshl.o)
    0x00004a60   0x00000022   Code   RO          705    .text               mc_p.l(llushr.o)
    0x00004a82   0x00000026   Code   RO          707    .text               mc_p.l(llsshr.o)
    0x00004aa8   0x000000c4   Code   RO          709    .text               mf_p.l(depilogue.o)
    0x00004b6c   0x00000020   Code   RO          577    i.__0printf$6       mc_p.l(printf6.o)
    0x00004b8c   0x00000024   Code   RO          660    i.__0vsnprintf      mc_p.l(printfa.o)
    0x00004bb0   0x0000002e   Code   RO          711    i.__ARM_clz         mf_p.l(depilogue.o)
    0x00004bde   0x0000001c   Code   RO          246    i.__ARM_common_switch8  os_core.o
    0x00004bfa   0x0000000e   Code   RO          715    i.__scatterload_copy  mc_p.l(handlers.o)
    0x00004c08   0x0000000e   Code   RO          717    i.__scatterload_zeroinit  mc_p.l(handlers.o)
    0x00004c16   0x00000002   PAD
    0x00004c18   0x00000154   Code   RO          662    i._fp_digits        mc_p.l(printfa.o)
    0x00004d6c   0x00000308   Code   RO          584    i._printf_core      mc_p.l(printf6.o)
    0x00005074   0x00000700   Code   RO          663    i._printf_core      mc_p.l(printfa.o)
    0x00005774   0x00000020   Code   RO          585    i._printf_post_padding  mc_p.l(printf6.o)
    0x00005794   0x00000020   Code   RO          664    i._printf_post_padding  mc_p.l(printfa.o)
    0x000057b4   0x0000002a   Code   RO          586    i._printf_pre_padding  mc_p.l(printf6.o)
    0x000057de   0x0000002a   Code   RO          665    i._printf_pre_padding  mc_p.l(printfa.o)
    0x00005808   0x00000016   Code   RO          666    i._snputc           mc_p.l(printfa.o)
    0x0000581e   0x00000002   PAD
    0x00005820   0x00000010   Data   RO           52    .constdata          gpio.o
    0x00005830   0x00000030   Data   RO          174    .constdata          seg7led.o
    0x00005860   0x00000100   Data   RO          234    .constdata          os_core.o
    0x00005960   0x00000020   Data   RO          713    Region$$Table       anon$$obj.o


    Execution Region RW_IRAM1 (Base: 0x10000000, Size: 0x000015b8, Max: 0x00002000, ABSOLUTE)

    Base Addr    Size         Type   Attr      Idx    E Section Name        Object

    0x10000000   0x0000000c   Data   RW           28    .data               system_lpc11xx.o
    0x1000000c   0x00000020   Data   RW           53    .data               gpio.o
    0x1000002c   0x00000010   Data   RW           79    .data               uart.o
    0x1000003c   0x00000008   Data   RW          107    .data               retarget.o
    0x10000044   0x00000018   Data   RW          130    .data               timer32.o
    0x1000005c   0x00000048   Data   RW          235    .data               os_core.o
    0x100000a4   0x00000008   Data   RW          362    .data               main.o
    0x100000ac   0x00000004   Data   RW          402    .data               speaker_op.o
    0x100000b0   0x00000040   Zero   RW           78    .bss                uart.o
    0x100000f0   0x00000cc4   Zero   RW          233    .bss                os_core.o
    0x10000db4   0x00000700   Zero   RW          360    .bss                main.o
    0x100014b4   0x00000004   PAD
    0x100014b8   0x00000100   Zero   RW            1    STACK               startup_lpc11xx.o


==============================================================================

Image component sizes


      Code (inc. data)   RO Data    RW Data    ZI Data      Debug   Object Name

         0          0          0          0          0       4156   core_cm0.o
      1224         64         16         32          0      12427   gpio.o
       166          0          0          0          0       8300   key.o
        38          0          0          0          0       1294   lpc11c14_it.o
      1396        364          0          8       1792      11118   main.o
      3540        316        256         72       3268      20399   os_core.o
       196         40          0          0          0        360   os_cpu_a.o
       300         62          0          0          0      13257   os_cpu_c.o
      2036         46          0          0          0       7328   os_flag.o
      1016         20          0          0          0       4426   os_mbox.o
       436         18          0          0          0       3296   os_mem.o
      1492         32          0          0          0       5829   os_q.o
       952         24          0          0          0       4150   os_sem.o
      2146         70          0          0          0       8069   os_task.o
       444         28          0          0          0       1870   os_time.o
         0          0          0          0          0      10295   os_tmr.o
       136         12          0          8          0       3489   retarget.o
       144          4         48          0          0       1313   seg7led.o
        60         10          0          4          0       1138   speaker_op.o
        32          8        192          0        256       1056   startup_lpc11xx.o
       220         24          0         12          0       8397   system_lpc11xx.o
      1176         56          0         24          0       3936   timer32.o
       588         42          0         16         64      11139   uart.o

    ----------------------------------------------------------------------
     17742       1240        544        176       5384     147042   Object Totals
         0          0         32          0          0          0   (incl. Generated)
         4          0          0          0          4          2   (incl. Padding)

    ----------------------------------------------------------------------

      Code (inc. data)   RO Data    RW Data    ZI Data      Debug   Library Member Name

         0          0          0          0          0          0   entry.o
         8          4          0          0          0          0   entry2.o
         4          0          0          0          0          0   entry5.o
         8          4          0          0          0          0   entry7.o
        30          0          0          0          0          0   handlers.o
        36          8          0          0          0         68   init.o
         0          0          0          0          0          0   iusefp.o
        32          0          0          0          0         68   llshl.o
        38          0          0          0          0         68   llsshr.o
        34          0          0          0          0         68   llushr.o
       882         14          0          0          0        324   printf6.o
      2264         96          0          0          0        460   printfa.o
        44          0          0          0          0         72   uidiv.o
        96          0          0          0          0         84   uldiv.o
        40          2          0          0          0         68   cdrcmple.o
       356          6          0          0          0        140   dadd.o
       240          6          0          0          0         84   ddiv.o
       242          0          0          0          0        216   depilogue.o
        64         10          0          0          0         68   dfixul.o
       204          6          0          0          0         88   dmul.o

    ----------------------------------------------------------------------
      4626        156          0          0          0       1876   Library Totals
         4          0          0          0          0          0   (incl. Padding)

    ----------------------------------------------------------------------

      Code (inc. data)   RO Data    RW Data    ZI Data      Debug   Library Name

      3476        126          0          0          0       1212   mc_p.l
      1146         30          0          0          0        664   mf_p.l

    ----------------------------------------------------------------------
      4626        156          0          0          0       1876   Library Totals

    ----------------------------------------------------------------------

==============================================================================


      Code (inc. data)   RO Data    RW Data    ZI Data      Debug   

     22368       1396        544        176       5384     146528   Grand Totals
     22368       1396        544        176       5384     146528   ELF Image Totals
     22368       1396        544        176          0          0   ROM Totals

==============================================================================

    Total RO  Size (Code + RO Data)                22912 (  22.38kB)
    Total RW  Size (RW Data + ZI Data)              5560 (   5.43kB)
    Total ROM Size (Code + RO Data + RW Data)      23088 (  22.55kB)

==============================================================================

