///////////////////////////////////////////////////////////////////////////////
//                                                                            /
// IAR C/C++ Compiler V7.51A/W32 for 8051               02/Jan/2013  10:26:39 /
// Copyright 2004-2009 IAR Systems AB.                                        /
//                                                                            /
//    Core               =  plain                                             /
//    Code model         =  banked                                            /
//    Data model         =  large                                             /
//    Calling convention =  xdata reentrant                                   /
//    Constant location  =  data_rom                                          /
//    Dptr setup         =  1,16                                              /
//    Source file        =  C:\Texas Instruments\ZStack-CC2530-2.3.0-1.4.0\Pr /
//                          ojects\zstack\Samples\SensorDemo\Source\DemoSenso /
//                          r.c                                               /
//    Command line       =  -f "C:\Texas Instruments\ZStack-CC2530-2.3.0-1.4. /
//                          0\Projects\zstack\Samples\SensorDemo\CC2530DB\..\ /
//                          ..\..\Tools\CC2530DB\f8wEndev.cfg" (-DCPU32MHZ    /
//                          -DROOT=__near_func -DBLINK_LEDS) -f "C:\Texas     /
//                          Instruments\ZStack-CC2530-2.3.0-1.4.0\Projects\zs /
//                          tack\Samples\SensorDemo\CC2530DB\..\..\..\Tools\C /
//                          C2530DB\f8wConfig.cfg" (-DSECURE=0                /
//                          -DZG_SECURE_DYNAMIC=0 -DREFLECTOR                 /
//                          -DDEFAULT_CHANLIST=0x00000800                     /
//                          -DZDAPP_CONFIG_PAN_ID=0x1234                      /
//                          -DNWK_START_DELAY=100 -DEXTENDED_JOINING_RANDOM_M /
//                          ASK=0x007F -DBEACON_REQUEST_DELAY=100             /
//                          -DBEACON_REQ_DELAY_MASK=0x00FF                    /
//                          -DROUTE_EXPIRY_TIME=30 -DAPSC_ACK_WAIT_DURATION_P /
//                          OLLED=3000 -DNWK_INDIRECT_MSG_TIMEOUT=7           /
//                          -DMAX_RREQ_ENTRIES=8 -DAPSC_MAX_FRAME_RETRIES=3   /
//                          -DNWK_MAX_DATA_RETRIES=2                          /
//                          -DMAX_POLL_FAILURE_RETRIES=2 -DMAX_BCAST=9        /
//                          -DAPS_MAX_GROUPS=16 -DMAX_RTG_ENTRIES=40          /
//                          -DNWK_MAX_BINDING_ENTRIES=4                       /
//                          -DMAX_BINDING_CLUSTER_IDS=4                       /
//                          "-DDEFAULT_KEY={0x01, 0x03, 0x05, 0x07, 0x09,     /
//                          0x0B, 0x0D, 0x0F, 0x00, 0x02, 0x04, 0x06, 0x08,   /
//                          0x0A, 0x0C, 0x0D}" -DMAC_MAX_FRAME_SIZE=116       /
//                          "-DCONST=const __code" -DGENERIC=__generic        /
//                          -DRFD_RCVC_ALWAYS_ON=FALSE -DPOLL_RATE=1000       /
//                          -DQUEUED_POLL_RATE=100 -DRESPONSE_POLL_RATE=100)  /
//                          -DREJOIN_POLL_RATE=440 "C:\Texas                  /
//                          Instruments\ZStack-CC2530-2.3.0-1.4.0\Projects\zs /
//                          tack\Samples\SensorDemo\Source\DemoSensor.c" -D   /
//                          NWK_AUTO_POLL -D xHOLD_AUTO_START -D REFLECTOR    /
//                          -D POWER_SAVING -D NV_INIT -D NV_RESTORE -D       /
//                          DEVICE_LOGICAL_TYPE=ZG_DEVICETYPE_ENDDEVICE -D    /
//                          LCD_SUPPORTED=DEBUG -lC "C:\Texas                 /
//                          Instruments\ZStack-CC2530-2.3.0-1.4.0\Projects\zs /
//                          tack\Samples\SensorDemo\CC2530DB\SensorEB\List\"  /
//                          -lA "C:\Texas Instruments\ZStack-CC2530-2.3.0-1.4 /
//                          .0\Projects\zstack\Samples\SensorDemo\CC2530DB\Se /
//                          nsorEB\List\" --diag_suppress Pe001,Pa010 -o      /
//                          "C:\Texas Instruments\ZStack-CC2530-2.3.0-1.4.0\P /
//                          rojects\zstack\Samples\SensorDemo\CC2530DB\Sensor /
//                          EB\Obj\" -e --require_prototypes --no_cse         /
//                          --no_unroll --no_inline --no_code_motion          /
//                          --no_tbaa --debug --core=plain --dptr=16,1        /
//                          --data_model=large --code_model=banked            /
//                          --calling_convention=xdata_reentrant              /
//                          --place_constants=data_rom --nr_virtual_regs 16   /
//                          -I "C:\Texas Instruments\ZStack-CC2530-2.3.0-1.4. /
//                          0\Projects\zstack\Samples\SensorDemo\CC2530DB\"   /
//                          -I "C:\Texas Instruments\ZStack-CC2530-2.3.0-1.4. /
//                          0\Projects\zstack\Samples\SensorDemo\CC2530DB\..\ /
//                          SOURCE\" -I "C:\Texas Instruments\ZStack-CC2530-2 /
//                          .3.0-1.4.0\Projects\zstack\Samples\SensorDemo\CC2 /
//                          530DB\..\..\..\ZMAIN\TI2530DB\" -I "C:\Texas      /
//                          Instruments\ZStack-CC2530-2.3.0-1.4.0\Projects\zs /
//                          tack\Samples\SensorDemo\CC2530DB\..\..\..\..\..\C /
//                          OMPONENTS\MT\" -I "C:\Texas                       /
//                          Instruments\ZStack-CC2530-2.3.0-1.4.0\Projects\zs /
//                          tack\Samples\SensorDemo\CC2530DB\..\..\..\..\..\C /
//                          OMPONENTS\HAL\INCLUDE\" -I "C:\Texas              /
//                          Instruments\ZStack-CC2530-2.3.0-1.4.0\Projects\zs /
//                          tack\Samples\SensorDemo\CC2530DB\..\..\..\..\..\C /
//                          OMPONENTS\HAL\TARGET\CC2530EB\" -I "C:\Texas      /
//                          Instruments\ZStack-CC2530-2.3.0-1.4.0\Projects\zs /
//                          tack\Samples\SensorDemo\CC2530DB\..\..\..\..\..\C /
//                          OMPONENTS\OSAL\MCU\CCSOC\" -I "C:\Texas           /
//                          Instruments\ZStack-CC2530-2.3.0-1.4.0\Projects\zs /
//                          tack\Samples\SensorDemo\CC2530DB\..\..\..\..\..\C /
//                          OMPONENTS\OSAL\INCLUDE\" -I "C:\Texas             /
//                          Instruments\ZStack-CC2530-2.3.0-1.4.0\Projects\zs /
//                          tack\Samples\SensorDemo\CC2530DB\..\..\..\..\..\C /
//                          OMPONENTS\STACK\AF\" -I "C:\Texas                 /
//                          Instruments\ZStack-CC2530-2.3.0-1.4.0\Projects\zs /
//                          tack\Samples\SensorDemo\CC2530DB\..\..\..\..\..\C /
//                          OMPONENTS\STACK\NWK\" -I "C:\Texas                /
//                          Instruments\ZStack-CC2530-2.3.0-1.4.0\Projects\zs /
//                          tack\Samples\SensorDemo\CC2530DB\..\..\..\..\..\C /
//                          OMPONENTS\STACK\SEC\" -I "C:\Texas                /
//                          Instruments\ZStack-CC2530-2.3.0-1.4.0\Projects\zs /
//                          tack\Samples\SensorDemo\CC2530DB\..\..\..\..\..\C /
//                          OMPONENTS\STACK\SAPI\" -I "C:\Texas               /
//                          Instruments\ZStack-CC2530-2.3.0-1.4.0\Projects\zs /
//                          tack\Samples\SensorDemo\CC2530DB\..\..\..\..\..\C /
//                          OMPONENTS\STACK\SYS\" -I "C:\Texas                /
//                          Instruments\ZStack-CC2530-2.3.0-1.4.0\Projects\zs /
//                          tack\Samples\SensorDemo\CC2530DB\..\..\..\..\..\C /
//                          OMPONENTS\STACK\ZDO\" -I "C:\Texas                /
//                          Instruments\ZStack-CC2530-2.3.0-1.4.0\Projects\zs /
//                          tack\Samples\SensorDemo\CC2530DB\..\..\..\..\..\C /
//                          OMPONENTS\ZMAC\F8W\" -I "C:\Texas                 /
//                          Instruments\ZStack-CC2530-2.3.0-1.4.0\Projects\zs /
//                          tack\Samples\SensorDemo\CC2530DB\..\..\..\..\..\C /
//                          OMPONENTS\ZMAC\" -I "C:\Texas                     /
//                          Instruments\ZStack-CC2530-2.3.0-1.4.0\Projects\zs /
//                          tack\Samples\SensorDemo\CC2530DB\..\..\..\..\..\C /
//                          OMPONENTS\SERVICES\SADDR\" -I "C:\Texas           /
//                          Instruments\ZStack-CC2530-2.3.0-1.4.0\Projects\zs /
//                          tack\Samples\SensorDemo\CC2530DB\..\..\..\..\..\C /
//                          OMPONENTS\SERVICES\SDATA\" -I "C:\Texas           /
//                          Instruments\ZStack-CC2530-2.3.0-1.4.0\Projects\zs /
//                          tack\Samples\SensorDemo\CC2530DB\..\..\..\..\..\C /
//                          OMPONENTS\MAC\INCLUDE\" -I "C:\Texas              /
//                          Instruments\ZStack-CC2530-2.3.0-1.4.0\Projects\zs /
//                          tack\Samples\SensorDemo\CC2530DB\..\..\..\..\..\C /
//                          OMPONENTS\MAC\HIGH_LEVEL\" -I "C:\Texas           /
//                          Instruments\ZStack-CC2530-2.3.0-1.4.0\Projects\zs /
//                          tack\Samples\SensorDemo\CC2530DB\..\..\..\..\..\C /
//                          OMPONENTS\MAC\LOW_LEVEL\srf04\" -I "C:\Texas      /
//                          Instruments\ZStack-CC2530-2.3.0-1.4.0\Projects\zs /
//                          tack\Samples\SensorDemo\CC2530DB\..\..\..\..\..\C /
//                          OMPONENTS\MAC\LOW_LEVEL\srf04\SINGLE_CHIP\" -I    /
//                          "C:\Program Files\IAR Systems\Embedded Workbench  /
//                          5.3\8051\INC\" -I "C:\Program Files\IAR           /
//                          Systems\Embedded Workbench 5.3\8051\INC\CLIB\"    /
//                          -On                                               /
//    List file          =  C:\Texas Instruments\ZStack-CC2530-2.3.0-1.4.0\Pr /
//                          ojects\zstack\Samples\SensorDemo\CC2530DB\SensorE /
//                          B\List\DemoSensor.s51                             /
//                                                                            /
//                                                                            /
///////////////////////////////////////////////////////////////////////////////

        NAME DemoSensor

        RTMODEL "__calling_convention", "xdata_reentrant"
        RTMODEL "__code_model", "banked"
        RTMODEL "__core", "plain"
        RTMODEL "__data_model", "large"
        RTMODEL "__dptr_size", "16"
        RTMODEL "__extended_stack", "disabled"
        RTMODEL "__location_for_constants", "data"
        RTMODEL "__number_of_dptrs", "1"
        RTMODEL "__rt_version", "1"

        RSEG DOVERLAY:DATA:NOROOT(0)
        RSEG IOVERLAY:IDATA:NOROOT(0)
        RSEG ISTACK:IDATA:NOROOT(0)
        RSEG PSTACK:XDATA:NOROOT(0)
        RSEG XSTACK:XDATA:NOROOT(0)

        EXTERN ??readTemp?relay
        EXTERN ??readVoltage?relay
        EXTERN ??sendReport?relay
        EXTERN ?ALLOC_XSTACK8
        EXTERN ?BANKED_ENTER_XDATA
        EXTERN ?BANKED_LEAVE_XDATA
        EXTERN ?BDISPATCH
        EXTERN ?BRET
        EXTERN ?DEALLOC_XSTACK8
        EXTERN ?FLT_MUL
        EXTERN ?FLT_TO_L
        EXTERN ?L_MOV_X
        EXTERN ?PUSH_XSTACK_I_ONE
        EXTERN ?PUSH_XSTACK_I_TWO
        EXTERN ?UL_TO_FLT
        EXTERN ?US_SHR
        EXTERN ?V0
        EXTERN ?XSP
        EXTERN ?XSTACK_DISP0_8
        EXTERN __INIT_XDATA_I
        EXTERN __INIT_XDATA_Z

        FUNCTION ??readTemp?relay,0203H
        FUNCTION ??readVoltage?relay,0203H
        FUNCTION ??sendReport?relay,0203H
        PUBLIC ??uartRxCB?relay
        FUNCTION ??uartRxCB?relay,0203H
        PUBLIC ??zb_AllowBindConfirm?relay
        FUNCTION ??zb_AllowBindConfirm?relay,0203H
        PUBLIC ??zb_BindConfirm?relay
        FUNCTION ??zb_BindConfirm?relay,0203H
        PUBLIC ??zb_FindDeviceConfirm?relay
        FUNCTION ??zb_FindDeviceConfirm?relay,0203H
        PUBLIC ??zb_HandleKeys?relay
        FUNCTION ??zb_HandleKeys?relay,0203H
        PUBLIC ??zb_HandleOsalEvent?relay
        FUNCTION ??zb_HandleOsalEvent?relay,0203H
        PUBLIC ??zb_ReceiveDataIndication?relay
        FUNCTION ??zb_ReceiveDataIndication?relay,0203H
        PUBLIC ??zb_SendDataConfirm?relay
        FUNCTION ??zb_SendDataConfirm?relay,0203H
        PUBLIC ??zb_StartConfirm?relay
        FUNCTION ??zb_StartConfirm?relay,0203H
        PUBWEAK ADCCON3
        PUBWEAK ADCH
        PUBWEAK ADCL
        PUBWEAK _A_TCON
        PUBWEAK __Constant_42160000
        FUNCTION readTemp,0203H
        ARGFRAME XSTACK, 14, STACK
        ARGFRAME IOVERLAY, 0, STATIC
        ARGFRAME DOVERLAY, 0, STATIC
        LOCFRAME XSTACK, 10, STACK
        FUNCTION readVoltage,0203H
        ARGFRAME XSTACK, 14, STACK
        ARGFRAME IOVERLAY, 0, STATIC
        ARGFRAME DOVERLAY, 0, STATIC
        LOCFRAME XSTACK, 16, STACK
        PUBLIC reportState
        FUNCTION sendReport,021203H
        ARGFRAME XSTACK, 9, STACK
        ARGFRAME IOVERLAY, 0, STATIC
        ARGFRAME DOVERLAY, 0, STATIC
        LOCFRAME ISTACK, 1, STACK
        LOCFRAME XSTACK, 19, STACK
        PUBLIC uartRxCB
        FUNCTION uartRxCB,0203H
        ARGFRAME XSTACK, 0, STACK
        PUBLIC zb_AllowBindConfirm
        FUNCTION zb_AllowBindConfirm,0203H
        ARGFRAME XSTACK, 0, STACK
        PUBLIC zb_BindConfirm
        FUNCTION zb_BindConfirm,021203H
        ARGFRAME XSTACK, 0, STACK
        LOCFRAME XSTACK, 9, STACK
        PUBLIC zb_FindDeviceConfirm
        FUNCTION zb_FindDeviceConfirm,0203H
        ARGFRAME XSTACK, 0, STACK
        PUBLIC zb_HandleKeys
        FUNCTION zb_HandleKeys,021203H
        ARGFRAME XSTACK, 0, STACK
        LOCFRAME XSTACK, 9, STACK
        PUBLIC zb_HandleOsalEvent
        FUNCTION zb_HandleOsalEvent,021203H
        ARGFRAME XSTACK, 0, STACK
        LOCFRAME XSTACK, 9, STACK
        PUBLIC zb_OutCmdList
        PUBLIC zb_ReceiveDataIndication
        FUNCTION zb_ReceiveDataIndication,0203H
        ARGFRAME XSTACK, 4, STACK
        LOCFRAME XSTACK, 9, STACK
        PUBLIC zb_SendDataConfirm
        FUNCTION zb_SendDataConfirm,021203H
        ARGFRAME XSTACK, 0, STACK
        LOCFRAME XSTACK, 9, STACK
        PUBLIC zb_SimpleDesc
        PUBLIC zb_StartConfirm
        FUNCTION zb_StartConfirm,021203H
        ARGFRAME XSTACK, 0, STACK
        LOCFRAME XSTACK, 9, STACK
        
        CFI Names cfiNames0
        CFI StackFrame CFA_SP SP IDATA
        CFI StackFrame CFA_PSP16 PSP16 XDATA
        CFI StackFrame CFA_XSP16 XSP16 XDATA
        CFI StaticOverlayFrame CFA_IOVERLAY IOVERLAY
        CFI StaticOverlayFrame CFA_DOVERLAY DOVERLAY
        CFI Resource `PSW.CY`:1, `B.BR0`:1, `B.BR1`:1, `B.BR2`:1, `B.BR3`:1
        CFI Resource `B.BR4`:1, `B.BR5`:1, `B.BR6`:1, `B.BR7`:1, `VB.BR8`:1
        CFI Resource `VB.BR9`:1, `VB.BR10`:1, `VB.BR11`:1, `VB.BR12`:1
        CFI Resource `VB.BR13`:1, `VB.BR14`:1, `VB.BR15`:1, VB:8, B:8, A:8
        CFI Resource PSW:8, DPL0:8, DPH0:8, R0:8, R1:8, R2:8, R3:8, R4:8, R5:8
        CFI Resource R6:8, R7:8, V0:8, V1:8, V2:8, V3:8, V4:8, V5:8, V6:8, V7:8
        CFI Resource V8:8, V9:8, V10:8, V11:8, V12:8, V13:8, V14:8, V15:8, SP:8
        CFI Resource PSPH:8, PSPL:8, PSP16:16, XSPH:8, XSPL:8, XSP16:16
        CFI VirtualResource ?RET:24
        CFI Resource ?BRET_EXT:8
        CFI VirtualResource ?RET_HIGH:8, ?RET_LOW:8
        CFI ResourceParts PSP16 PSPH, PSPL
        CFI ResourceParts XSP16 XSPH, XSPL
        CFI ResourceParts ?RET ?BRET_EXT, ?RET_HIGH, ?RET_LOW
        CFI EndNames cfiNames0
        
        CFI Common cfiCommon0 Using cfiNames0
        CFI CodeAlign 1
        CFI DataAlign -1
        CFI ReturnAddress ?RET CODE
        CFI CFA_DOVERLAY Used
        CFI CFA_IOVERLAY Used
        CFI CFA_SP SP+-3
        CFI CFA_PSP16 PSP16+0
        CFI CFA_XSP16 XSP16+0
        CFI `PSW.CY` SameValue
        CFI `B.BR0` SameValue
        CFI `B.BR1` SameValue
        CFI `B.BR2` SameValue
        CFI `B.BR3` SameValue
        CFI `B.BR4` SameValue
        CFI `B.BR5` SameValue
        CFI `B.BR6` SameValue
        CFI `B.BR7` SameValue
        CFI `VB.BR8` SameValue
        CFI `VB.BR9` SameValue
        CFI `VB.BR10` SameValue
        CFI `VB.BR11` SameValue
        CFI `VB.BR12` SameValue
        CFI `VB.BR13` SameValue
        CFI `VB.BR14` SameValue
        CFI `VB.BR15` SameValue
        CFI VB SameValue
        CFI B Undefined
        CFI A Undefined
        CFI PSW SameValue
        CFI DPL0 SameValue
        CFI DPH0 SameValue
        CFI R0 Undefined
        CFI R1 Undefined
        CFI R2 Undefined
        CFI R3 Undefined
        CFI R4 Undefined
        CFI R5 Undefined
        CFI R6 SameValue
        CFI R7 SameValue
        CFI V0 SameValue
        CFI V1 SameValue
        CFI V2 SameValue
        CFI V3 SameValue
        CFI V4 SameValue
        CFI V5 SameValue
        CFI V6 SameValue
        CFI V7 SameValue
        CFI V8 SameValue
        CFI V9 SameValue
        CFI V10 SameValue
        CFI V11 SameValue
        CFI V12 SameValue
        CFI V13 SameValue
        CFI V14 SameValue
        CFI V15 SameValue
        CFI PSPH Undefined
        CFI PSPL Undefined
        CFI XSPH Undefined
        CFI XSPL Undefined
        CFI ?RET Concat
        CFI ?BRET_EXT Frame(CFA_SP, 3)
        CFI ?RET_HIGH Frame(CFA_SP, 2)
        CFI ?RET_LOW Frame(CFA_SP, 1)
        CFI EndCommon cfiCommon0
        
HalLedBlink         SYMBOL "HalLedBlink"
zb_StartRequest     SYMBOL "zb_StartRequest"
osal_start_timerEx  SYMBOL "osal_start_timerEx"
zb_BindDevice       SYMBOL "zb_BindDevice"
osal_set_event      SYMBOL "osal_set_event"
HalLedSet           SYMBOL "HalLedSet"
HalLcdWriteString   SYMBOL "HalLcdWriteString"
zb_GetDeviceInfo    SYMBOL "zb_GetDeviceInfo"
osal_stop_timerEx   SYMBOL "osal_stop_timerEx"
zb_SendDataRequest  SYMBOL "zb_SendDataRequest"
??HalLcdWriteString?relay SYMBOL "?relay", HalLcdWriteString
??HalLedBlink?relay SYMBOL "?relay", HalLedBlink
??HalLedSet?relay   SYMBOL "?relay", HalLedSet
??osal_set_event?relay SYMBOL "?relay", osal_set_event
??osal_start_timerEx?relay SYMBOL "?relay", osal_start_timerEx
??osal_stop_timerEx?relay SYMBOL "?relay", osal_stop_timerEx
??zb_BindDevice?relay SYMBOL "?relay", zb_BindDevice
??zb_GetDeviceInfo?relay SYMBOL "?relay", zb_GetDeviceInfo
??zb_SendDataRequest?relay SYMBOL "?relay", zb_SendDataRequest
??zb_StartRequest?relay SYMBOL "?relay", zb_StartRequest
uartRxCB            SYMBOL "uartRxCB"
??uartRxCB?relay    SYMBOL "?relay", uartRxCB
zb_AllowBindConfirm SYMBOL "zb_AllowBindConfirm"
??zb_AllowBindConfirm?relay SYMBOL "?relay", zb_AllowBindConfirm
zb_BindConfirm      SYMBOL "zb_BindConfirm"
??zb_BindConfirm?relay SYMBOL "?relay", zb_BindConfirm
zb_FindDeviceConfirm SYMBOL "zb_FindDeviceConfirm"
??zb_FindDeviceConfirm?relay SYMBOL "?relay", zb_FindDeviceConfirm
zb_HandleKeys       SYMBOL "zb_HandleKeys"
??zb_HandleKeys?relay SYMBOL "?relay", zb_HandleKeys
zb_HandleOsalEvent  SYMBOL "zb_HandleOsalEvent"
??zb_HandleOsalEvent?relay SYMBOL "?relay", zb_HandleOsalEvent
zb_ReceiveDataIndication SYMBOL "zb_ReceiveDataIndication"
??zb_ReceiveDataIndication?relay SYMBOL "?relay", zb_ReceiveDataIndication
zb_SendDataConfirm  SYMBOL "zb_SendDataConfirm"
??zb_SendDataConfirm?relay SYMBOL "?relay", zb_SendDataConfirm
zb_StartConfirm     SYMBOL "zb_StartConfirm"
??zb_StartConfirm?relay SYMBOL "?relay", zb_StartConfirm

        EXTERN HalLedBlink
        FUNCTION HalLedBlink,0202H
        ARGFRAME ISTACK, 0, STACK
        ARGFRAME PSTACK, 0, STACK
        ARGFRAME XSTACK, 9, STACK
        ARGFRAME IOVERLAY, 0, STATIC
        ARGFRAME DOVERLAY, 0, STATIC
        EXTERN zb_StartRequest
        FUNCTION zb_StartRequest,0202H
        ARGFRAME ISTACK, 0, STACK
        ARGFRAME PSTACK, 0, STACK
        ARGFRAME XSTACK, 9, STACK
        ARGFRAME IOVERLAY, 0, STATIC
        ARGFRAME DOVERLAY, 0, STATIC
        EXTERN osal_start_timerEx
        FUNCTION osal_start_timerEx,0202H
        ARGFRAME ISTACK, 0, STACK
        ARGFRAME PSTACK, 0, STACK
        ARGFRAME XSTACK, 9, STACK
        ARGFRAME IOVERLAY, 0, STATIC
        ARGFRAME DOVERLAY, 0, STATIC
        EXTERN zb_BindDevice
        FUNCTION zb_BindDevice,0202H
        ARGFRAME ISTACK, 0, STACK
        ARGFRAME PSTACK, 0, STACK
        ARGFRAME XSTACK, 9, STACK
        ARGFRAME IOVERLAY, 0, STATIC
        ARGFRAME DOVERLAY, 0, STATIC
        EXTERN osal_set_event
        FUNCTION osal_set_event,0202H
        ARGFRAME ISTACK, 0, STACK
        ARGFRAME PSTACK, 0, STACK
        ARGFRAME XSTACK, 9, STACK
        ARGFRAME IOVERLAY, 0, STATIC
        ARGFRAME DOVERLAY, 0, STATIC
        EXTERN HalLedSet
        FUNCTION HalLedSet,0202H
        ARGFRAME ISTACK, 0, STACK
        ARGFRAME PSTACK, 0, STACK
        ARGFRAME XSTACK, 9, STACK
        ARGFRAME IOVERLAY, 0, STATIC
        ARGFRAME DOVERLAY, 0, STATIC
        EXTERN HalLcdWriteString
        FUNCTION HalLcdWriteString,0202H
        ARGFRAME ISTACK, 0, STACK
        ARGFRAME PSTACK, 0, STACK
        ARGFRAME XSTACK, 9, STACK
        ARGFRAME IOVERLAY, 0, STATIC
        ARGFRAME DOVERLAY, 0, STATIC
        EXTERN zb_GetDeviceInfo
        FUNCTION zb_GetDeviceInfo,0202H
        ARGFRAME ISTACK, 0, STACK
        ARGFRAME PSTACK, 0, STACK
        ARGFRAME XSTACK, 9, STACK
        ARGFRAME IOVERLAY, 0, STATIC
        ARGFRAME DOVERLAY, 0, STATIC
        EXTERN osal_stop_timerEx
        FUNCTION osal_stop_timerEx,0202H
        ARGFRAME ISTACK, 0, STACK
        ARGFRAME PSTACK, 0, STACK
        ARGFRAME XSTACK, 9, STACK
        ARGFRAME IOVERLAY, 0, STATIC
        ARGFRAME DOVERLAY, 0, STATIC
        EXTERN zb_SendDataRequest
        FUNCTION zb_SendDataRequest,0202H
        ARGFRAME ISTACK, 0, STACK
        ARGFRAME PSTACK, 0, STACK
        ARGFRAME XSTACK, 19, STACK
        ARGFRAME IOVERLAY, 0, STATIC
        ARGFRAME DOVERLAY, 0, STATIC
        EXTERN ??HalLcdWriteString?relay
        FUNCTION ??HalLcdWriteString?relay,00H
        EXTERN ??HalLedBlink?relay
        FUNCTION ??HalLedBlink?relay,00H
        EXTERN ??HalLedSet?relay
        FUNCTION ??HalLedSet?relay,00H
        EXTERN ??osal_set_event?relay
        FUNCTION ??osal_set_event?relay,00H
        EXTERN ??osal_start_timerEx?relay
        FUNCTION ??osal_start_timerEx?relay,00H
        EXTERN ??osal_stop_timerEx?relay
        FUNCTION ??osal_stop_timerEx?relay,00H
        EXTERN ??zb_BindDevice?relay
        FUNCTION ??zb_BindDevice?relay,00H
        EXTERN ??zb_GetDeviceInfo?relay
        FUNCTION ??zb_GetDeviceInfo?relay,00H
        EXTERN ??zb_SendDataRequest?relay
        FUNCTION ??zb_SendDataRequest?relay,00H
        EXTERN ??zb_StartRequest?relay
        FUNCTION ??zb_StartRequest?relay,00H
        EXTERN sapi_TaskID

// C:\Texas Instruments\ZStack-CC2530-2.3.0-1.4.0\Projects\zstack\Samples\SensorDemo\Source\DemoSensor.c
//    1 /**************************************************************************************************
//    2   Filename:       DemoSensor.c
//    3 
//    4   Description:    Sensor application for the sensor demo utilizing the Simple API.
//    5 
//    6                   The sensor application binds to a gateway and will periodically 
//    7                   read temperature and supply voltage from the ADC and send report   
//    8                   towards the gateway node.  
//    9 
//   10 
//   11   Copyright 2009 Texas Instruments Incorporated. All rights reserved.
//   12 
//   13   IMPORTANT: Your use of this Software is limited to those specific rights
//   14   granted under the terms of a software license agreement between the user
//   15   who downloaded the software, his/her employer (which must be your employer)
//   16   and Texas Instruments Incorporated (the "License").  You may not use this
//   17   Software unless you agree to abide by the terms of the License. The License
//   18   limits your use, and you acknowledge, that the Software may not be modified,
//   19   copied or distributed unless embedded on a Texas Instruments microcontroller
//   20   or used solely and exclusively in conjunction with a Texas Instruments radio
//   21   frequency transceiver, which is integrated into your product.  Other than for
//   22   the foregoing purpose, you may not use, reproduce, copy, prepare derivative
//   23   works of, modify, distribute, perform, display or sell this Software and/or
//   24   its documentation for any purpose.
//   25 
//   26   YOU FURTHER ACKNOWLEDGE AND AGREE THAT THE SOFTWARE AND DOCUMENTATION ARE
//   27   PROVIDED “AS IS?WITHOUT WARRANTY OF ANY KIND, EITHER EXPRESS OR IMPLIED,
//   28   INCLUDING WITHOUT LIMITATION, ANY WARRANTY OF MERCHANTABILITY, TITLE,
//   29   NON-INFRINGEMENT AND FITNESS FOR A PARTICULAR PURPOSE. IN NO EVENT SHALL
//   30   TEXAS INSTRUMENTS OR ITS LICENSORS BE LIABLE OR OBLIGATED UNDER CONTRACT,
//   31   NEGLIGENCE, STRICT LIABILITY, CONTRIBUTION, BREACH OF WARRANTY, OR OTHER
//   32   LEGAL EQUITABLE THEORY ANY DIRECT OR INDIRECT DAMAGES OR EXPENSES
//   33   INCLUDING BUT NOT LIMITED TO ANY INCIDENTAL, SPECIAL, INDIRECT, PUNITIVE
//   34   OR CONSEQUENTIAL DAMAGES, LOST PROFITS OR LOST DATA, COST OF PROCUREMENT
//   35   OF SUBSTITUTE GOODS, TECHNOLOGY, SERVICES, OR ANY CLAIMS BY THIRD PARTIES
//   36   (INCLUDING BUT NOT LIMITED TO ANY DEFENSE THEREOF), OR OTHER SIMILAR COSTS.
//   37 
//   38   Should you have any questions regarding your right to use this Software,
//   39   contact Texas Instruments Incorporated at www.TI.com.
//   40 **************************************************************************************************/
//   41 
//   42 /******************************************************************************
//   43  * INCLUDES
//   44  */
//   45 
//   46 #include "ZComDef.h"
//   47 #include "OSAL.h"
//   48 #include "sapi.h"
//   49 #include "hal_key.h"

        ASEGN SFR_AN:DATA:NOROOT,088H
// union <unnamed> volatile __sfr _A_TCON
_A_TCON:
        DS 1

        ASEGN SFR_AN:DATA:NOROOT,0b6H
// unsigned char volatile __sfr ADCCON3
ADCCON3:
        DS 1

        ASEGN SFR_AN:DATA:NOROOT,0baH
// unsigned char volatile __sfr ADCL
ADCL:
        DS 1

        ASEGN SFR_AN:DATA:NOROOT,0bbH
// unsigned char volatile __sfr ADCH
ADCH:
        DS 1
//   50 #include "hal_lcd.h"
//   51 #include "hal_led.h"
//   52 #include "hal_adc.h"
//   53 #include "hal_mcu.h"
//   54 #include "hal_uart.h"
//   55 #include "DemoApp.h"
//   56 
//   57 /******************************************************************************
//   58  * CONSTANTS
//   59  */
//   60 #define REPORT_FAILURE_LIMIT                4
//   61 #define ACK_REQ_INTERVAL                    5 // each 5th packet is sent with ACK request
//   62 
//   63 // Application States
//   64 #define APP_INIT                            0    // Initial state
//   65 #define APP_START                           1    // Sensor has joined network
//   66 #define APP_BIND                            2    // Sensor is in process of binding
//   67 #define APP_REPORT                          4    // Sensor is in reporting state
//   68 
//   69 // Application osal event identifiers
//   70 // Bit mask of events ( from 0x0000 to 0x00FF )
//   71 #define MY_START_EVT                        0x0001
//   72 #define MY_REPORT_EVT                       0x0002
//   73 #define MY_FIND_COLLECTOR_EVT               0x0004
//   74 
//   75 // ADC definitions for CC2430/CC2530 from the hal_adc.c file
//   76 #if defined (HAL_MCU_CC2530)
//   77 #define HAL_ADC_REF_125V    0x00    /* Internal 1.25V Reference */
//   78 #define HAL_ADC_DEC_064     0x00    /* Decimate by 64 : 8-bit resolution */
//   79 #define HAL_ADC_DEC_128     0x10    /* Decimate by 128 : 10-bit resolution */
//   80 #define HAL_ADC_DEC_512     0x30    /* Decimate by 512 : 14-bit resolution */
//   81 #define HAL_ADC_CHN_VDD3    0x0f    /* Input channel: VDD/3 */
//   82 #define HAL_ADC_CHN_TEMP    0x0e    /* Temperature sensor */
//   83 #endif // HAL_MCU_CC2530
//   84 
//   85 /******************************************************************************
//   86  * TYPEDEFS
//   87  */
//   88 
//   89 /******************************************************************************
//   90  * LOCAL VARIABLES
//   91  */
//   92 

        RSEG XDATA_Z:XDATA:NOROOT(0)
//   93 static uint8 appState =           APP_INIT;
appState:
        DS 1
        REQUIRE __INIT_XDATA_Z
//   94 

        RSEG XDATA_Z:XDATA:NOROOT(0)
//   95 uint8 reportState =        FALSE;
reportState:
        DS 1
        REQUIRE __INIT_XDATA_Z

        RSEG XDATA_Z:XDATA:NOROOT(0)
//   96 static uint8 reportFailureNr =    0;
reportFailureNr:
        DS 1
        REQUIRE __INIT_XDATA_Z
//   97 

        RSEG XDATA_I:XDATA:NOROOT(0)
        DATA
//   98 static uint16 myReportPeriod =    2000;         // milliseconds
myReportPeriod:
        DS 2
        REQUIRE `?<Initializer for myReportPeriod>`
        REQUIRE __INIT_XDATA_I

        RSEG XDATA_I:XDATA:NOROOT(0)
        DATA
//   99 static uint16 myBindRetryDelay =  2000;         // milliseconds
myBindRetryDelay:
        DS 2
        REQUIRE `?<Initializer for myBindRetryDelay>`
        REQUIRE __INIT_XDATA_I
//  100 

        RSEG XDATA_Z:XDATA:NOROOT(0)
//  101 static uint16 parentShortAddr;
parentShortAddr:
        DS 2
        REQUIRE __INIT_XDATA_Z
//  102 
//  103 /******************************************************************************
//  104  * GLOBAL VARIABLES
//  105  */
//  106 
//  107 // Inputs and Outputs for Sensor device
//  108 #define NUM_OUT_CMD_SENSOR                1
//  109 #define NUM_IN_CMD_SENSOR                 0
//  110 
//  111 // List of output and input commands for Sensor device

        RSEG XDATA_ROM_C:CONST:REORDER:NOROOT(0)
        DATA
//  112 const cId_t zb_OutCmdList[NUM_OUT_CMD_SENSOR] =
zb_OutCmdList:
        DW 2
//  113 {
//  114   SENSOR_REPORT_CMD_ID
//  115 };
//  116 
//  117 // Define SimpleDescriptor for Sensor device

        RSEG XDATA_ROM_C:CONST:REORDER:NOROOT(0)
        DATA
//  118 const SimpleDescriptionFormat_t zb_SimpleDesc =
zb_SimpleDesc:
        DB 2
        DW 3872, 1
        DB 1, 0
        DW 0H
        DB 1
        DW zb_OutCmdList
//  119 {
//  120   MY_ENDPOINT_ID,             //  Endpoint
//  121   MY_PROFILE_ID,              //  Profile ID
//  122   DEV_ID_SENSOR,              //  Device ID
//  123   DEVICE_VERSION_SENSOR,      //  Device Version
//  124   0,                          //  Reserved
//  125   NUM_IN_CMD_SENSOR,          //  Number of Input Commands
//  126   (cId_t *) NULL,             //  Input Command List
//  127   NUM_OUT_CMD_SENSOR,         //  Number of Output Commands
//  128   (cId_t *) zb_OutCmdList     //  Output Command List
//  129 };
//  130 
//  131 
//  132 /******************************************************************************
//  133  * LOCAL FUNCTIONS
//  134  */
//  135 
//  136 void uartRxCB( uint8 port, uint8 event );
//  137 static void sendReport(void);
//  138 static int8 readTemp(void);
//  139 static uint8 readVoltage(void);
//  140 
//  141 /*****************************************************************************
//  142  * @fn          zb_HandleOsalEvent
//  143  *
//  144  * @brief       The zb_HandleOsalEvent function is called by the operating
//  145  *              system when a task event is set
//  146  *
//  147  * @param       event - Bitmask containing the events that have been set
//  148  *
//  149  * @return      none
//  150  */

        RSEG BANKED_CODE:CODE:NOROOT(0)
//  151 void zb_HandleOsalEvent( uint16 event )
zb_HandleOsalEvent:
        CFI Block cfiBlock0 Using cfiCommon0
        CFI Function zb_HandleOsalEvent
//  152 {
        FUNCALL zb_HandleOsalEvent, HalLedBlink
        LOCFRAME ISTACK, 0, STACK
        LOCFRAME PSTACK, 0, STACK
        LOCFRAME XSTACK, 9, STACK
        LOCFRAME IOVERLAY, 0, STATIC
        LOCFRAME DOVERLAY, 0, STATIC
        ARGFRAME ISTACK, 0, STACK
        ARGFRAME PSTACK, 0, STACK
        ARGFRAME XSTACK, 9, STACK
        ARGFRAME IOVERLAY, 0, STATIC
        ARGFRAME DOVERLAY, 0, STATIC
        FUNCALL zb_HandleOsalEvent, zb_StartRequest
        LOCFRAME ISTACK, 0, STACK
        LOCFRAME PSTACK, 0, STACK
        LOCFRAME XSTACK, 9, STACK
        LOCFRAME IOVERLAY, 0, STATIC
        LOCFRAME DOVERLAY, 0, STATIC
        ARGFRAME ISTACK, 0, STACK
        ARGFRAME PSTACK, 0, STACK
        ARGFRAME XSTACK, 9, STACK
        ARGFRAME IOVERLAY, 0, STATIC
        ARGFRAME DOVERLAY, 0, STATIC
        FUNCALL zb_HandleOsalEvent, sendReport
        LOCFRAME ISTACK, 0, STACK
        LOCFRAME PSTACK, 0, STACK
        LOCFRAME XSTACK, 9, STACK
        LOCFRAME IOVERLAY, 0, STATIC
        LOCFRAME DOVERLAY, 0, STATIC
        ARGFRAME ISTACK, 0, STACK
        ARGFRAME PSTACK, 0, STACK
        ARGFRAME XSTACK, 9, STACK
        ARGFRAME IOVERLAY, 0, STATIC
        ARGFRAME DOVERLAY, 0, STATIC
        FUNCALL zb_HandleOsalEvent, osal_start_timerEx
        LOCFRAME ISTACK, 0, STACK
        LOCFRAME PSTACK, 0, STACK
        LOCFRAME XSTACK, 9, STACK
        LOCFRAME IOVERLAY, 0, STATIC
        LOCFRAME DOVERLAY, 0, STATIC
        ARGFRAME ISTACK, 0, STACK
        ARGFRAME PSTACK, 0, STACK
        ARGFRAME XSTACK, 9, STACK
        ARGFRAME IOVERLAY, 0, STATIC
        ARGFRAME DOVERLAY, 0, STATIC
        FUNCALL zb_HandleOsalEvent, zb_BindDevice
        LOCFRAME ISTACK, 0, STACK
        LOCFRAME PSTACK, 0, STACK
        LOCFRAME XSTACK, 9, STACK
        LOCFRAME IOVERLAY, 0, STATIC
        LOCFRAME DOVERLAY, 0, STATIC
        ARGFRAME ISTACK, 0, STACK
        ARGFRAME PSTACK, 0, STACK
        ARGFRAME XSTACK, 9, STACK
        ARGFRAME IOVERLAY, 0, STATIC
        ARGFRAME DOVERLAY, 0, STATIC
        FUNCALL zb_HandleOsalEvent, HalLedBlink
        LOCFRAME ISTACK, 0, STACK
        LOCFRAME PSTACK, 0, STACK
        LOCFRAME XSTACK, 9, STACK
        LOCFRAME IOVERLAY, 0, STATIC
        LOCFRAME DOVERLAY, 0, STATIC
        ARGFRAME ISTACK, 0, STACK
        ARGFRAME PSTACK, 0, STACK
        ARGFRAME XSTACK, 9, STACK
        ARGFRAME IOVERLAY, 0, STATIC
        ARGFRAME DOVERLAY, 0, STATIC
        FUNCALL zb_HandleOsalEvent, zb_BindDevice
        LOCFRAME ISTACK, 0, STACK
        LOCFRAME PSTACK, 0, STACK
        LOCFRAME XSTACK, 9, STACK
        LOCFRAME IOVERLAY, 0, STATIC
        LOCFRAME DOVERLAY, 0, STATIC
        ARGFRAME ISTACK, 0, STACK
        ARGFRAME PSTACK, 0, STACK
        ARGFRAME XSTACK, 9, STACK
        ARGFRAME IOVERLAY, 0, STATIC
        ARGFRAME DOVERLAY, 0, STATIC
        MOV     A,#-0x9
        LCALL   ?BANKED_ENTER_XDATA
        CFI DPH0 load(1, XDATA, add(CFA_XSP16, literal(-1)))
        CFI DPL0 load(1, XDATA, add(CFA_XSP16, literal(-2)))
        CFI ?BRET_EXT load(1, XDATA, add(CFA_XSP16, literal(-3)))
        CFI ?RET_HIGH load(1, XDATA, add(CFA_XSP16, literal(-4)))
        CFI ?RET_LOW load(1, XDATA, add(CFA_XSP16, literal(-5)))
        CFI R7 load(1, XDATA, add(CFA_XSP16, literal(-6)))
        CFI V0 load(1, XDATA, add(CFA_XSP16, literal(-7)))
        CFI VB load(1, XDATA, add(CFA_XSP16, literal(-8)))
        CFI R6 load(1, XDATA, add(CFA_XSP16, literal(-9)))
        CFI CFA_SP SP+0
        CFI CFA_XSP16 add(XSP16, 9)
        ; Saved register size: 9
        ; Auto size: 0
        MOV     A,R2
        MOV     R6,A
        MOV     A,R3
        MOV     R7,A
//  153   if(event & SYS_EVENT_MSG)
//  154   {
//  155     
//  156   }
//  157   
//  158   if( event & ZB_ENTRY_EVENT )
        MOV     A,#0x0
        ANL     A,R6
        MOV     R0,A
        MOV     A,#0x10
        ANL     A,R7
        MOV     R1,A
        MOV     A,#0x0
        XRL     A,R0
        JNZ     ??zb_HandleOsalEvent_0
        MOV     A,#0x0
        XRL     A,R1
??zb_HandleOsalEvent_0:
        JZ      ??zb_HandleOsalEvent_1
//  159   { 
//  160     // blind LED 1 to indicate joining a network
//  161     HalLedBlink ( HAL_LED_1, 0, 50, 500 );
        ; Setup parameters for call to function HalLedBlink
        MOV     R4,#-0xc
        MOV     R5,#0x1
        MOV     R3,#0x32
        MOV     R2,#0x0
        MOV     R1,#0x1
        LCALL   ??HalLedBlink?relay
//  162      
//  163     // Start the device 
//  164     zb_StartRequest();
        ; Setup parameters for call to function zb_StartRequest
        LCALL   ??zb_StartRequest?relay
//  165   }
//  166 
//  167   if ( event & MY_REPORT_EVT )
??zb_HandleOsalEvent_1:
        MOV     A,R6
        ANL     A,#0x2
        JZ      ??zb_HandleOsalEvent_2
//  168   {
//  169     if ( appState == APP_REPORT ) 
        MOV     DPTR,#appState
        MOVX    A,@DPTR
        XRL     A,#0x4
        JNZ     ??zb_HandleOsalEvent_2
//  170     {
//  171       sendReport();
        ; Setup parameters for call to function sendReport
        LCALL   ??sendReport?relay
//  172       osal_start_timerEx( sapi_TaskID, MY_REPORT_EVT, myReportPeriod );
        ; Setup parameters for call to function osal_start_timerEx
        MOV     DPTR,#myReportPeriod
        MOVX    A,@DPTR
        MOV     R4,A
        INC     DPTR
        MOVX    A,@DPTR
        MOV     R5,A
        MOV     R2,#0x2
        MOV     R3,#0x0
        MOV     DPTR,#sapi_TaskID
        MOVX    A,@DPTR
        MOV     R1,A
        LCALL   ??osal_start_timerEx?relay
//  173     }
//  174   }
//  175   if ( event & MY_FIND_COLLECTOR_EVT )
??zb_HandleOsalEvent_2:
        MOV     A,R6
        ANL     A,#0x4
        JZ      ??zb_HandleOsalEvent_3
//  176   {
//  177     // Delete previous binding
//  178     if ( appState==APP_REPORT ) 
        MOV     DPTR,#appState
        MOVX    A,@DPTR
        XRL     A,#0x4
        JNZ     ??zb_HandleOsalEvent_4
//  179     {
//  180       zb_BindDevice( FALSE, SENSOR_REPORT_CMD_ID, (uint8 *)NULL );
        ; Setup parameters for call to function zb_BindDevice
        MOV     R4,#0x0
        MOV     R5,#0x0
        MOV     R2,#0x2
        MOV     R3,#0x0
        MOV     R1,#0x0
        LCALL   ??zb_BindDevice?relay
//  181     }
//  182     
//  183     appState = APP_BIND;
??zb_HandleOsalEvent_4:
        MOV     A,#0x2
        MOV     DPTR,#appState
        MOVX    @DPTR,A
//  184     // blind LED 2 to indicate discovery and binding
//  185     HalLedBlink ( HAL_LED_2, 0, 50, 500 );
        ; Setup parameters for call to function HalLedBlink
        MOV     R4,#-0xc
        MOV     R5,#0x1
        MOV     R3,#0x32
        MOV     R2,#0x0
        MOV     R1,#0x2
        LCALL   ??HalLedBlink?relay
//  186     
//  187     // Find and bind to a collector device
//  188     zb_BindDevice( TRUE, SENSOR_REPORT_CMD_ID, (uint8 *)NULL );
        ; Setup parameters for call to function zb_BindDevice
        MOV     R4,#0x0
        MOV     R5,#0x0
        MOV     R2,#0x2
        MOV     R3,#0x0
        MOV     R1,#0x1
        LCALL   ??zb_BindDevice?relay
//  189   }
//  190 }
??zb_HandleOsalEvent_3:
        MOV     R7,#0x1
        LJMP    ?BANKED_LEAVE_XDATA
        CFI EndBlock cfiBlock0
//  191 
//  192 /******************************************************************************
//  193  * @fn      zb_HandleKeys
//  194  *
//  195  * @brief   Handles all key events for this device.
//  196  *
//  197  * @param   shift - true if in shift/alt.
//  198  * @param   keys - bit field for key events. Valid entries:
//  199  *                 EVAL_SW4
//  200  *                 EVAL_SW3
//  201  *                 EVAL_SW2
//  202  *                 EVAL_SW1
//  203  *
//  204  * @return  none
//  205  */

        RSEG BANKED_CODE:CODE:NOROOT(0)
//  206 void zb_HandleKeys( uint8 shift, uint8 keys )
zb_HandleKeys:
        CFI Block cfiBlock1 Using cfiCommon0
        CFI Function zb_HandleKeys
//  207 {
        FUNCALL zb_HandleKeys, osal_set_event
        LOCFRAME ISTACK, 0, STACK
        LOCFRAME PSTACK, 0, STACK
        LOCFRAME XSTACK, 9, STACK
        LOCFRAME IOVERLAY, 0, STATIC
        LOCFRAME DOVERLAY, 0, STATIC
        ARGFRAME ISTACK, 0, STACK
        ARGFRAME PSTACK, 0, STACK
        ARGFRAME XSTACK, 9, STACK
        ARGFRAME IOVERLAY, 0, STATIC
        ARGFRAME DOVERLAY, 0, STATIC
        MOV     A,#-0x9
        LCALL   ?BANKED_ENTER_XDATA
        CFI DPH0 load(1, XDATA, add(CFA_XSP16, literal(-1)))
        CFI DPL0 load(1, XDATA, add(CFA_XSP16, literal(-2)))
        CFI ?BRET_EXT load(1, XDATA, add(CFA_XSP16, literal(-3)))
        CFI ?RET_HIGH load(1, XDATA, add(CFA_XSP16, literal(-4)))
        CFI ?RET_LOW load(1, XDATA, add(CFA_XSP16, literal(-5)))
        CFI R7 load(1, XDATA, add(CFA_XSP16, literal(-6)))
        CFI V0 load(1, XDATA, add(CFA_XSP16, literal(-7)))
        CFI VB load(1, XDATA, add(CFA_XSP16, literal(-8)))
        CFI R6 load(1, XDATA, add(CFA_XSP16, literal(-9)))
        CFI CFA_SP SP+0
        CFI CFA_XSP16 add(XSP16, 9)
        ; Saved register size: 9
        ; Auto size: 0
        MOV     A,R1
        MOV     R6,A
        MOV     A,R2
        MOV     R7,A
//  208   // Shift is used to make each button/switch dual purpose.
//  209   if ( shift )
        MOV     A,R6
        JNZ     ??zb_HandleKeys_0
//  210   {
//  211     if ( keys & HAL_KEY_SW_1 )
//  212     {
//  213     }
//  214     if ( keys & HAL_KEY_SW_2 )
//  215     {
//  216     }
//  217     if ( keys & HAL_KEY_SW_3 )
//  218     {
//  219     }
//  220     if ( keys & HAL_KEY_SW_4 )
//  221     {
//  222     }
//  223   }
//  224   else
//  225   {
//  226     if ( keys & HAL_KEY_SW_1 )
//  227     {
//  228     }
//  229     if ( keys & HAL_KEY_SW_2 )
//  230     {
//  231     }
//  232     if ( keys & HAL_KEY_SW_3 )
        MOV     A,R7
        MOV     C,0xE0 /* A   */.4
        JNC     ??zb_HandleKeys_0
//  233     {
//  234       // Start reporting
//  235       osal_set_event( sapi_TaskID, MY_REPORT_EVT );
        ; Setup parameters for call to function osal_set_event
        MOV     R2,#0x2
        MOV     R3,#0x0
        MOV     DPTR,#sapi_TaskID
        MOVX    A,@DPTR
        MOV     R1,A
        LCALL   ??osal_set_event?relay
//  236       reportState = TRUE;
        MOV     A,#0x1
        MOV     DPTR,#reportState
        MOVX    @DPTR,A
//  237     }
//  238     if ( keys & HAL_KEY_SW_4 )
//  239     {
//  240     }
//  241   }
//  242 }
??zb_HandleKeys_0:
        MOV     R7,#0x1
        LJMP    ?BANKED_LEAVE_XDATA
        CFI EndBlock cfiBlock1
//  243 
//  244 /******************************************************************************
//  245  * @fn          zb_StartConfirm
//  246  *
//  247  * @brief       The zb_StartConfirm callback is called by the ZigBee stack
//  248  *              after a start request operation completes
//  249  *
//  250  * @param       status - The status of the start operation.  Status of
//  251  *                       ZB_SUCCESS indicates the start operation completed
//  252  *                       successfully.  Else the status is an error code.
//  253  *
//  254  * @return      none
//  255  */

        RSEG BANKED_CODE:CODE:NOROOT(0)
//  256 void zb_StartConfirm( uint8 status )
zb_StartConfirm:
        CFI Block cfiBlock2 Using cfiCommon0
        CFI Function zb_StartConfirm
//  257 {
        FUNCALL zb_StartConfirm, HalLedSet
        LOCFRAME ISTACK, 0, STACK
        LOCFRAME PSTACK, 0, STACK
        LOCFRAME XSTACK, 9, STACK
        LOCFRAME IOVERLAY, 0, STATIC
        LOCFRAME DOVERLAY, 0, STATIC
        ARGFRAME ISTACK, 0, STACK
        ARGFRAME PSTACK, 0, STACK
        ARGFRAME XSTACK, 9, STACK
        ARGFRAME IOVERLAY, 0, STATIC
        ARGFRAME DOVERLAY, 0, STATIC
        FUNCALL zb_StartConfirm, HalLcdWriteString
        LOCFRAME ISTACK, 0, STACK
        LOCFRAME PSTACK, 0, STACK
        LOCFRAME XSTACK, 9, STACK
        LOCFRAME IOVERLAY, 0, STATIC
        LOCFRAME DOVERLAY, 0, STATIC
        ARGFRAME ISTACK, 0, STACK
        ARGFRAME PSTACK, 0, STACK
        ARGFRAME XSTACK, 9, STACK
        ARGFRAME IOVERLAY, 0, STATIC
        ARGFRAME DOVERLAY, 0, STATIC
        FUNCALL zb_StartConfirm, HalLcdWriteString
        LOCFRAME ISTACK, 0, STACK
        LOCFRAME PSTACK, 0, STACK
        LOCFRAME XSTACK, 9, STACK
        LOCFRAME IOVERLAY, 0, STATIC
        LOCFRAME DOVERLAY, 0, STATIC
        ARGFRAME ISTACK, 0, STACK
        ARGFRAME PSTACK, 0, STACK
        ARGFRAME XSTACK, 9, STACK
        ARGFRAME IOVERLAY, 0, STATIC
        ARGFRAME DOVERLAY, 0, STATIC
        FUNCALL zb_StartConfirm, zb_GetDeviceInfo
        LOCFRAME ISTACK, 0, STACK
        LOCFRAME PSTACK, 0, STACK
        LOCFRAME XSTACK, 9, STACK
        LOCFRAME IOVERLAY, 0, STATIC
        LOCFRAME DOVERLAY, 0, STATIC
        ARGFRAME ISTACK, 0, STACK
        ARGFRAME PSTACK, 0, STACK
        ARGFRAME XSTACK, 9, STACK
        ARGFRAME IOVERLAY, 0, STATIC
        ARGFRAME DOVERLAY, 0, STATIC
        FUNCALL zb_StartConfirm, osal_set_event
        LOCFRAME ISTACK, 0, STACK
        LOCFRAME PSTACK, 0, STACK
        LOCFRAME XSTACK, 9, STACK
        LOCFRAME IOVERLAY, 0, STATIC
        LOCFRAME DOVERLAY, 0, STATIC
        ARGFRAME ISTACK, 0, STACK
        ARGFRAME PSTACK, 0, STACK
        ARGFRAME XSTACK, 9, STACK
        ARGFRAME IOVERLAY, 0, STATIC
        ARGFRAME DOVERLAY, 0, STATIC
        MOV     A,#-0x9
        LCALL   ?BANKED_ENTER_XDATA
        CFI DPH0 load(1, XDATA, add(CFA_XSP16, literal(-1)))
        CFI DPL0 load(1, XDATA, add(CFA_XSP16, literal(-2)))
        CFI ?BRET_EXT load(1, XDATA, add(CFA_XSP16, literal(-3)))
        CFI ?RET_HIGH load(1, XDATA, add(CFA_XSP16, literal(-4)))
        CFI ?RET_LOW load(1, XDATA, add(CFA_XSP16, literal(-5)))
        CFI R7 load(1, XDATA, add(CFA_XSP16, literal(-6)))
        CFI V0 load(1, XDATA, add(CFA_XSP16, literal(-7)))
        CFI VB load(1, XDATA, add(CFA_XSP16, literal(-8)))
        CFI R6 load(1, XDATA, add(CFA_XSP16, literal(-9)))
        CFI CFA_SP SP+0
        CFI CFA_XSP16 add(XSP16, 9)
        ; Saved register size: 9
        ; Auto size: 0
        MOV     A,R1
//  258   // If the device sucessfully started, change state to running
//  259   if ( status == ZB_SUCCESS ) 
        JNZ     ??zb_StartConfirm_0
//  260   {
//  261     // Change application state
//  262     appState = APP_START;
        MOV     A,#0x1
        MOV     DPTR,#appState
        MOVX    @DPTR,A
//  263     
//  264     // Set LED 1 to indicate that node is operational on the network
//  265     HalLedSet( HAL_LED_1, HAL_LED_MODE_ON );
        ; Setup parameters for call to function HalLedSet
        MOV     R2,#0x1
        MOV     R1,#0x1
        LCALL   ??HalLedSet?relay
//  266     
//  267     // Update the display
//  268     #if defined ( LCD_SUPPORTED )
//  269     HalLcdWriteString( "SensorDemo", HAL_LCD_LINE_1 );
        ; Setup parameters for call to function HalLcdWriteString
        MOV     R1,#0x1
        MOV     R2,#(`?<Constant "SensorDemo">` & 0xff)
        MOV     R3,#((`?<Constant "SensorDemo">` >> 8) & 0xff)
        LCALL   ??HalLcdWriteString?relay
//  270     HalLcdWriteString( "Sensor", HAL_LCD_LINE_2 );
        ; Setup parameters for call to function HalLcdWriteString
        MOV     R1,#0x2
        MOV     R2,#(`?<Constant "Sensor">` & 0xff)
        MOV     R3,#((`?<Constant "Sensor">` >> 8) & 0xff)
        LCALL   ??HalLcdWriteString?relay
//  271     #endif
//  272     
//  273     // Store parent short address
//  274     zb_GetDeviceInfo(ZB_INFO_PARENT_SHORT_ADDR, &parentShortAddr);
        ; Setup parameters for call to function zb_GetDeviceInfo
        MOV     R2,#(parentShortAddr & 0xff)
        MOV     R3,#((parentShortAddr >> 8) & 0xff)
        MOV     R1,#0x3
        LCALL   ??zb_GetDeviceInfo?relay
//  275     
//  276     // Set event to bind to a collector
//  277     osal_set_event( sapi_TaskID, MY_FIND_COLLECTOR_EVT );  
        ; Setup parameters for call to function osal_set_event
        MOV     R2,#0x4
        MOV     R3,#0x0
        MOV     DPTR,#sapi_TaskID
        MOVX    A,@DPTR
        MOV     R1,A
        LCALL   ??osal_set_event?relay
//  278   }
//  279 }
??zb_StartConfirm_0:
        MOV     R7,#0x1
        LJMP    ?BANKED_LEAVE_XDATA
        CFI EndBlock cfiBlock2
//  280 
//  281 /******************************************************************************
//  282  * @fn          zb_SendDataConfirm
//  283  *
//  284  * @brief       The zb_SendDataConfirm callback function is called by the
//  285  *              ZigBee after a send data operation completes
//  286  *
//  287  * @param       handle - The handle identifying the data transmission.
//  288  *              status - The status of the operation.
//  289  *
//  290  * @return      none
//  291  */

        RSEG BANKED_CODE:CODE:NOROOT(0)
//  292 void zb_SendDataConfirm( uint8 handle, uint8 status )
zb_SendDataConfirm:
        CFI Block cfiBlock3 Using cfiCommon0
        CFI Function zb_SendDataConfirm
//  293 {
        FUNCALL zb_SendDataConfirm, osal_stop_timerEx
        LOCFRAME ISTACK, 0, STACK
        LOCFRAME PSTACK, 0, STACK
        LOCFRAME XSTACK, 9, STACK
        LOCFRAME IOVERLAY, 0, STATIC
        LOCFRAME DOVERLAY, 0, STATIC
        ARGFRAME ISTACK, 0, STACK
        ARGFRAME PSTACK, 0, STACK
        ARGFRAME XSTACK, 9, STACK
        ARGFRAME IOVERLAY, 0, STATIC
        ARGFRAME DOVERLAY, 0, STATIC
        FUNCALL zb_SendDataConfirm, osal_set_event
        LOCFRAME ISTACK, 0, STACK
        LOCFRAME PSTACK, 0, STACK
        LOCFRAME XSTACK, 9, STACK
        LOCFRAME IOVERLAY, 0, STATIC
        LOCFRAME DOVERLAY, 0, STATIC
        ARGFRAME ISTACK, 0, STACK
        ARGFRAME PSTACK, 0, STACK
        ARGFRAME XSTACK, 9, STACK
        ARGFRAME IOVERLAY, 0, STATIC
        ARGFRAME DOVERLAY, 0, STATIC
        MOV     A,#-0x9
        LCALL   ?BANKED_ENTER_XDATA
        CFI DPH0 load(1, XDATA, add(CFA_XSP16, literal(-1)))
        CFI DPL0 load(1, XDATA, add(CFA_XSP16, literal(-2)))
        CFI ?BRET_EXT load(1, XDATA, add(CFA_XSP16, literal(-3)))
        CFI ?RET_HIGH load(1, XDATA, add(CFA_XSP16, literal(-4)))
        CFI ?RET_LOW load(1, XDATA, add(CFA_XSP16, literal(-5)))
        CFI R7 load(1, XDATA, add(CFA_XSP16, literal(-6)))
        CFI V0 load(1, XDATA, add(CFA_XSP16, literal(-7)))
        CFI VB load(1, XDATA, add(CFA_XSP16, literal(-8)))
        CFI R6 load(1, XDATA, add(CFA_XSP16, literal(-9)))
        CFI CFA_SP SP+0
        CFI CFA_XSP16 add(XSP16, 9)
        ; Saved register size: 9
        ; Auto size: 0
        MOV     A,R2
//  294   if(status != ZB_SUCCESS) 
        JZ      ??zb_SendDataConfirm_0
//  295   {
//  296     if ( ++reportFailureNr >= REPORT_FAILURE_LIMIT ) 
        MOV     DPTR,#reportFailureNr
        MOVX    A,@DPTR
        ADD     A,#0x1
        MOV     R2,A
        MOV     A,R2
        MOV     DPTR,#reportFailureNr
        MOVX    @DPTR,A
        MOV     A,R2
        CLR     C
        SUBB    A,#0x4
        JC      ??zb_SendDataConfirm_1
//  297     {
//  298        // Stop reporting
//  299        osal_stop_timerEx( sapi_TaskID, MY_REPORT_EVT );
        ; Setup parameters for call to function osal_stop_timerEx
        MOV     R2,#0x2
        MOV     R3,#0x0
        MOV     DPTR,#sapi_TaskID
        MOVX    A,@DPTR
        MOV     R1,A
        LCALL   ??osal_stop_timerEx?relay
//  300        
//  301        // After failure reporting start automatically when the device
//  302        // is binded to a new gateway
//  303        reportState=TRUE;
        MOV     A,#0x1
        MOV     DPTR,#reportState
        MOVX    @DPTR,A
//  304         
//  305        // Try binding to a new gateway
//  306        osal_set_event( sapi_TaskID, MY_FIND_COLLECTOR_EVT );
        ; Setup parameters for call to function osal_set_event
        MOV     R2,#0x4
        MOV     R3,#0x0
        MOV     DPTR,#sapi_TaskID
        MOVX    A,@DPTR
        MOV     R1,A
        LCALL   ??osal_set_event?relay
//  307        reportFailureNr=0;
        MOV     A,#0x0
        MOV     DPTR,#reportFailureNr
        MOVX    @DPTR,A
        SJMP    ??zb_SendDataConfirm_1
//  308     }
//  309   }
//  310   // status == SUCCESS
//  311   else 
//  312   {
//  313     // Reset failure counter
//  314     reportFailureNr=0;
??zb_SendDataConfirm_0:
        MOV     A,#0x0
        MOV     DPTR,#reportFailureNr
        MOVX    @DPTR,A
//  315   }
//  316 }
??zb_SendDataConfirm_1:
        MOV     R7,#0x1
        LJMP    ?BANKED_LEAVE_XDATA
        CFI EndBlock cfiBlock3
//  317 
//  318 /******************************************************************************
//  319  * @fn          zb_BindConfirm
//  320  *
//  321  * @brief       The zb_BindConfirm callback is called by the ZigBee stack
//  322  *              after a bind operation completes.
//  323  *
//  324  * @param       commandId - The command ID of the binding being confirmed.
//  325  *              status - The status of the bind operation.
//  326  *
//  327  * @return      none
//  328  */

        RSEG BANKED_CODE:CODE:NOROOT(0)
//  329 void zb_BindConfirm( uint16 commandId, uint8 status )
zb_BindConfirm:
        CFI Block cfiBlock4 Using cfiCommon0
        CFI Function zb_BindConfirm
//  330 {
        FUNCALL zb_BindConfirm, HalLedSet
        LOCFRAME ISTACK, 0, STACK
        LOCFRAME PSTACK, 0, STACK
        LOCFRAME XSTACK, 9, STACK
        LOCFRAME IOVERLAY, 0, STATIC
        LOCFRAME DOVERLAY, 0, STATIC
        ARGFRAME ISTACK, 0, STACK
        ARGFRAME PSTACK, 0, STACK
        ARGFRAME XSTACK, 9, STACK
        ARGFRAME IOVERLAY, 0, STATIC
        ARGFRAME DOVERLAY, 0, STATIC
        FUNCALL zb_BindConfirm, osal_set_event
        LOCFRAME ISTACK, 0, STACK
        LOCFRAME PSTACK, 0, STACK
        LOCFRAME XSTACK, 9, STACK
        LOCFRAME IOVERLAY, 0, STATIC
        LOCFRAME DOVERLAY, 0, STATIC
        ARGFRAME ISTACK, 0, STACK
        ARGFRAME PSTACK, 0, STACK
        ARGFRAME XSTACK, 9, STACK
        ARGFRAME IOVERLAY, 0, STATIC
        ARGFRAME DOVERLAY, 0, STATIC
        FUNCALL zb_BindConfirm, osal_start_timerEx
        LOCFRAME ISTACK, 0, STACK
        LOCFRAME PSTACK, 0, STACK
        LOCFRAME XSTACK, 9, STACK
        LOCFRAME IOVERLAY, 0, STATIC
        LOCFRAME DOVERLAY, 0, STATIC
        ARGFRAME ISTACK, 0, STACK
        ARGFRAME PSTACK, 0, STACK
        ARGFRAME XSTACK, 9, STACK
        ARGFRAME IOVERLAY, 0, STATIC
        ARGFRAME DOVERLAY, 0, STATIC
        MOV     A,#-0x9
        LCALL   ?BANKED_ENTER_XDATA
        CFI DPH0 load(1, XDATA, add(CFA_XSP16, literal(-1)))
        CFI DPL0 load(1, XDATA, add(CFA_XSP16, literal(-2)))
        CFI ?BRET_EXT load(1, XDATA, add(CFA_XSP16, literal(-3)))
        CFI ?RET_HIGH load(1, XDATA, add(CFA_XSP16, literal(-4)))
        CFI ?RET_LOW load(1, XDATA, add(CFA_XSP16, literal(-5)))
        CFI R7 load(1, XDATA, add(CFA_XSP16, literal(-6)))
        CFI V0 load(1, XDATA, add(CFA_XSP16, literal(-7)))
        CFI VB load(1, XDATA, add(CFA_XSP16, literal(-8)))
        CFI R6 load(1, XDATA, add(CFA_XSP16, literal(-9)))
        CFI CFA_SP SP+0
        CFI CFA_XSP16 add(XSP16, 9)
        ; Saved register size: 9
        ; Auto size: 0
        MOV     ?V0 + 0,R1
//  331   if( status == ZB_SUCCESS )
        MOV     A,?V0 + 0
        JNZ     ??zb_BindConfirm_0
//  332   {   
//  333     appState = APP_REPORT;
        MOV     A,#0x4
        MOV     DPTR,#appState
        MOVX    @DPTR,A
//  334     HalLedSet( HAL_LED_2, HAL_LED_MODE_ON );
        ; Setup parameters for call to function HalLedSet
        MOV     R2,#0x1
        MOV     R1,#0x2
        LCALL   ??HalLedSet?relay
//  335     
//  336     // After failure reporting start automatically when the device
//  337     // is binded to a new gateway
//  338     if ( reportState ) 
        MOV     DPTR,#reportState
        MOVX    A,@DPTR
        JZ      ??zb_BindConfirm_1
//  339     {
//  340       // Start reporting
//  341       osal_set_event( sapi_TaskID, MY_REPORT_EVT );
        ; Setup parameters for call to function osal_set_event
        MOV     R2,#0x2
        MOV     R3,#0x0
        MOV     DPTR,#sapi_TaskID
        MOVX    A,@DPTR
        MOV     R1,A
        LCALL   ??osal_set_event?relay
        SJMP    ??zb_BindConfirm_1
//  342     }
//  343   }
//  344   else
//  345   {
//  346     osal_start_timerEx( sapi_TaskID, MY_FIND_COLLECTOR_EVT, myBindRetryDelay );
??zb_BindConfirm_0:
        ; Setup parameters for call to function osal_start_timerEx
        MOV     DPTR,#myBindRetryDelay
        MOVX    A,@DPTR
        MOV     R4,A
        INC     DPTR
        MOVX    A,@DPTR
        MOV     R5,A
        MOV     R2,#0x4
        MOV     R3,#0x0
        MOV     DPTR,#sapi_TaskID
        MOVX    A,@DPTR
        MOV     R1,A
        LCALL   ??osal_start_timerEx?relay
//  347   }
//  348 }
??zb_BindConfirm_1:
        MOV     R7,#0x1
        LJMP    ?BANKED_LEAVE_XDATA
        CFI EndBlock cfiBlock4
//  349 
//  350 /******************************************************************************
//  351  * @fn          zb_AllowBindConfirm
//  352  *
//  353  * @brief       Indicates when another device attempted to bind to this device
//  354  *
//  355  * @param
//  356  *
//  357  * @return      none
//  358  */

        RSEG BANKED_CODE:CODE:NOROOT(0)
//  359 void zb_AllowBindConfirm( uint16 source )
zb_AllowBindConfirm:
        CFI Block cfiBlock5 Using cfiCommon0
        CFI Function zb_AllowBindConfirm
//  360 {
        ; Saved register size: 0
        ; Auto size: 0
//  361 }
        LJMP    ?BRET
        CFI EndBlock cfiBlock5
//  362 
//  363 /******************************************************************************
//  364  * @fn          zb_FindDeviceConfirm
//  365  *
//  366  * @brief       The zb_FindDeviceConfirm callback function is called by the
//  367  *              ZigBee stack when a find device operation completes.
//  368  *
//  369  * @param       searchType - The type of search that was performed.
//  370  *              searchKey - Value that the search was executed on.
//  371  *              result - The result of the search.
//  372  *
//  373  * @return      none
//  374  */

        RSEG BANKED_CODE:CODE:NOROOT(0)
//  375 void zb_FindDeviceConfirm( uint8 searchType, uint8 *searchKey, uint8 *result )
zb_FindDeviceConfirm:
        CFI Block cfiBlock6 Using cfiCommon0
        CFI Function zb_FindDeviceConfirm
//  376 {
        ; Saved register size: 0
        ; Auto size: 0
//  377 }
        LJMP    ?BRET
        CFI EndBlock cfiBlock6
//  378 
//  379 /******************************************************************************
//  380  * @fn          zb_ReceiveDataIndication
//  381  *
//  382  * @brief       The zb_ReceiveDataIndication callback function is called
//  383  *              asynchronously by the ZigBee stack to notify the application
//  384  *              when data is received from a peer device.
//  385  *
//  386  * @param       source - The short address of the peer device that sent the data
//  387  *              command - The commandId associated with the data
//  388  *              len - The number of bytes in the pData parameter
//  389  *              pData - The data sent by the peer device
//  390  *
//  391  * @return      none
//  392  */

        RSEG BANKED_CODE:CODE:NOROOT(0)
//  393 void zb_ReceiveDataIndication( uint16 source, uint16 command, uint16 len, uint8 *pData  )
zb_ReceiveDataIndication:
        CFI Block cfiBlock7 Using cfiCommon0
        CFI Function zb_ReceiveDataIndication
//  394 {
        MOV     A,#-0x9
        LCALL   ?BANKED_ENTER_XDATA
        CFI DPH0 load(1, XDATA, add(CFA_XSP16, literal(-1)))
        CFI DPL0 load(1, XDATA, add(CFA_XSP16, literal(-2)))
        CFI ?BRET_EXT load(1, XDATA, add(CFA_XSP16, literal(-3)))
        CFI ?RET_HIGH load(1, XDATA, add(CFA_XSP16, literal(-4)))
        CFI ?RET_LOW load(1, XDATA, add(CFA_XSP16, literal(-5)))
        CFI R7 load(1, XDATA, add(CFA_XSP16, literal(-6)))
        CFI V0 load(1, XDATA, add(CFA_XSP16, literal(-7)))
        CFI VB load(1, XDATA, add(CFA_XSP16, literal(-8)))
        CFI R6 load(1, XDATA, add(CFA_XSP16, literal(-9)))
        CFI CFA_SP SP+0
        CFI CFA_XSP16 add(XSP16, 9)
        ; Saved register size: 9
        ; Auto size: 0
//  395 }
        MOV     R7,#0x1
        LJMP    ?BANKED_LEAVE_XDATA
        CFI EndBlock cfiBlock7
//  396 
//  397 /******************************************************************************
//  398  * @fn          uartRxCB
//  399  *
//  400  * @brief       Callback function for UART 
//  401  *
//  402  * @param       port - UART port
//  403  *              event - UART event that caused callback 
//  404  *
//  405  * @return      none
//  406  */

        RSEG BANKED_CODE:CODE:NOROOT(0)
//  407 void uartRxCB( uint8 port, uint8 event )
uartRxCB:
        CFI Block cfiBlock8 Using cfiCommon0
        CFI Function uartRxCB
//  408 {
        ; Saved register size: 0
        ; Auto size: 0
//  409 }
        LJMP    ?BRET
        CFI EndBlock cfiBlock8
//  410 
//  411 /******************************************************************************
//  412  * @fn          sendReport
//  413  *
//  414  * @brief       Send sensor report
//  415  *
//  416  * @param       none
//  417  *              
//  418  * @return      none
//  419  */

        RSEG BANKED_CODE:CODE:NOROOT(0)
//  420 static void sendReport(void)
sendReport:
        CFI Block cfiBlock9 Using cfiCommon0
        CFI Function sendReport
//  421 {
        FUNCALL sendReport, readTemp
        LOCFRAME ISTACK, 0, STACK
        LOCFRAME PSTACK, 0, STACK
        LOCFRAME XSTACK, 14, STACK
        LOCFRAME IOVERLAY, 0, STATIC
        LOCFRAME DOVERLAY, 0, STATIC
        ARGFRAME ISTACK, 0, STACK
        ARGFRAME PSTACK, 0, STACK
        ARGFRAME XSTACK, 14, STACK
        ARGFRAME IOVERLAY, 0, STATIC
        ARGFRAME DOVERLAY, 0, STATIC
        FUNCALL sendReport, readVoltage
        LOCFRAME ISTACK, 0, STACK
        LOCFRAME PSTACK, 0, STACK
        LOCFRAME XSTACK, 14, STACK
        LOCFRAME IOVERLAY, 0, STATIC
        LOCFRAME DOVERLAY, 0, STATIC
        ARGFRAME ISTACK, 0, STACK
        ARGFRAME PSTACK, 0, STACK
        ARGFRAME XSTACK, 14, STACK
        ARGFRAME IOVERLAY, 0, STATIC
        ARGFRAME DOVERLAY, 0, STATIC
        FUNCALL sendReport, zb_SendDataRequest
        LOCFRAME ISTACK, 0, STACK
        LOCFRAME PSTACK, 0, STACK
        LOCFRAME XSTACK, 19, STACK
        LOCFRAME IOVERLAY, 0, STATIC
        LOCFRAME DOVERLAY, 0, STATIC
        ARGFRAME ISTACK, 0, STACK
        ARGFRAME PSTACK, 0, STACK
        ARGFRAME XSTACK, 19, STACK
        ARGFRAME IOVERLAY, 0, STATIC
        ARGFRAME DOVERLAY, 0, STATIC
        MOV     A,#-0xa
        LCALL   ?BANKED_ENTER_XDATA
        CFI DPH0 load(1, XDATA, add(CFA_XSP16, literal(-1)))
        CFI DPL0 load(1, XDATA, add(CFA_XSP16, literal(-2)))
        CFI ?BRET_EXT load(1, XDATA, add(CFA_XSP16, literal(-3)))
        CFI ?RET_HIGH load(1, XDATA, add(CFA_XSP16, literal(-4)))
        CFI ?RET_LOW load(1, XDATA, add(CFA_XSP16, literal(-5)))
        CFI R7 load(1, XDATA, add(CFA_XSP16, literal(-6)))
        CFI V1 load(1, XDATA, add(CFA_XSP16, literal(-7)))
        CFI V0 load(1, XDATA, add(CFA_XSP16, literal(-8)))
        CFI VB load(1, XDATA, add(CFA_XSP16, literal(-9)))
        CFI R6 load(1, XDATA, add(CFA_XSP16, literal(-10)))
        CFI CFA_SP SP+0
        CFI CFA_XSP16 add(XSP16, 10)
        ; Saved register size: 10
        ; Auto size: 4
        MOV     A,#-0x4
        LCALL   ?ALLOC_XSTACK8
        CFI CFA_XSP16 add(XSP16, 14)
//  422   uint8 pData[SENSOR_REPORT_LENGTH];
//  423   static uint8 reportNr=0;
//  424   uint8 txOptions;
//  425   
//  426   // Read and report temperature value
//  427   pData[SENSOR_TEMP_OFFSET] =  readTemp();
        ; Setup parameters for call to function readTemp
        LCALL   ??readTemp?relay
        MOV     A,R1
        MOV     DPL,?XSP + 0
        MOV     DPH,?XSP + 1
        MOVX    @DPTR,A
//  428   
//  429   // Read and report voltage value
//  430   pData[SENSOR_VOLTAGE_OFFSET] = readVoltage(); 
        ; Setup parameters for call to function readVoltage
        LCALL   ??readVoltage?relay
        MOV     A,R1
        PUSH    A
        CFI CFA_SP SP+-1
        MOV     A,#0x1
        LCALL   ?XSTACK_DISP0_8
        POP     A
        CFI CFA_SP SP+0
        MOVX    @DPTR,A
//  431     
//  432   pData[SENSOR_PARENT_OFFSET] =  HI_UINT16(parentShortAddr);
        MOV     DPTR,#parentShortAddr
        INC     DPTR
        MOVX    A,@DPTR
        MOV     R1,A
        MOV     A,R1
        PUSH    A
        CFI CFA_SP SP+-1
        MOV     A,#0x2
        LCALL   ?XSTACK_DISP0_8
        POP     A
        CFI CFA_SP SP+0
        MOVX    @DPTR,A
//  433   pData[SENSOR_PARENT_OFFSET + 1] =  LO_UINT16(parentShortAddr);
        MOV     DPTR,#parentShortAddr
        MOVX    A,@DPTR
        PUSH    A
        CFI CFA_SP SP+-1
        MOV     A,#0x3
        LCALL   ?XSTACK_DISP0_8
        POP     A
        CFI CFA_SP SP+0
        MOVX    @DPTR,A
//  434   
//  435   // Set ACK request on each ACK_INTERVAL report
//  436   // If a report failed, set ACK request on next report
//  437   if ( ++reportNr<ACK_REQ_INTERVAL && reportFailureNr==0 ) 
        MOV     DPTR,#??reportNr
        MOVX    A,@DPTR
        ADD     A,#0x1
        MOV     R2,A
        MOV     A,R2
        MOV     DPTR,#??reportNr
        MOVX    @DPTR,A
        MOV     A,R2
        CLR     C
        SUBB    A,#0x5
        JNC     ??sendReport_0
        MOV     DPTR,#reportFailureNr
        MOVX    A,@DPTR
        JNZ     ??sendReport_0
//  438   {
//  439     txOptions = AF_TX_OPTIONS_NONE;
        MOV     R6,#0x0
        SJMP    ??sendReport_1
//  440   }
//  441   else 
//  442   {
//  443     txOptions = AF_MSG_ACK_REQUEST;
??sendReport_0:
        MOV     R6,#0x10
//  444     reportNr = 0;
        MOV     A,#0x0
        MOV     DPTR,#??reportNr
        MOVX    @DPTR,A
//  445   }
//  446   // Destination address 0xFFFE: Destination address is sent to previously
//  447   // established binding for the commandId.
//  448   zb_SendDataRequest( 0xFFFE, SENSOR_REPORT_CMD_ID, SENSOR_REPORT_LENGTH, pData, 0, txOptions, 0 );
??sendReport_1:
        ; Setup parameters for call to function zb_SendDataRequest
        MOV     ?V0 + 0,#0x0
        MOV     R0,#?V0 + 0
        LCALL   ?PUSH_XSTACK_I_ONE
        CFI CFA_XSP16 add(XSP16, 15)
        MOV     A,R6
        MOV     ?V0 + 0,A
        MOV     R0,#?V0 + 0
        LCALL   ?PUSH_XSTACK_I_ONE
        CFI CFA_XSP16 add(XSP16, 16)
        MOV     ?V0 + 0,#0x0
        MOV     R0,#?V0 + 0
        LCALL   ?PUSH_XSTACK_I_ONE
        CFI CFA_XSP16 add(XSP16, 17)
        MOV     A,#0x3
        LCALL   ?XSTACK_DISP0_8
        MOV     ?V0 + 0,DPL
        MOV     ?V0 + 1,DPH
        MOV     R0,#?V0 + 0
        LCALL   ?PUSH_XSTACK_I_TWO
        CFI CFA_XSP16 add(XSP16, 19)
        MOV     R1,#0x4
        MOV     R4,#0x2
        MOV     R5,#0x0
        MOV     R2,#-0x2
        MOV     R3,#-0x1
        LCALL   ??zb_SendDataRequest?relay
        MOV     A,#0x5
        LCALL   ?DEALLOC_XSTACK8
        CFI CFA_XSP16 add(XSP16, 14)
//  449 }
        MOV     A,#0x4
        LCALL   ?DEALLOC_XSTACK8
        CFI CFA_XSP16 add(XSP16, 10)
        MOV     R7,#0x2
        LJMP    ?BANKED_LEAVE_XDATA
        CFI EndBlock cfiBlock9

        RSEG XDATA_Z:XDATA:NOROOT(0)
??reportNr:
        DS 1
        REQUIRE __INIT_XDATA_Z
//  450 
//  451 /******************************************************************************
//  452  * @fn          readTemp
//  453  *
//  454  * @brief       read temperature from ADC
//  455  *
//  456  * @param       none
//  457  *              
//  458  * @return      temperature
//  459  */

        RSEG BANKED_CODE:CODE:NOROOT(0)
//  460 static int8 readTemp(void)
readTemp:
        CFI Block cfiBlock10 Using cfiCommon0
        CFI Function readTemp
//  461 {
        MOV     A,#-0xa
        LCALL   ?BANKED_ENTER_XDATA
        CFI DPH0 load(1, XDATA, add(CFA_XSP16, literal(-1)))
        CFI DPL0 load(1, XDATA, add(CFA_XSP16, literal(-2)))
        CFI ?BRET_EXT load(1, XDATA, add(CFA_XSP16, literal(-3)))
        CFI ?RET_HIGH load(1, XDATA, add(CFA_XSP16, literal(-4)))
        CFI ?RET_LOW load(1, XDATA, add(CFA_XSP16, literal(-5)))
        CFI R7 load(1, XDATA, add(CFA_XSP16, literal(-6)))
        CFI V1 load(1, XDATA, add(CFA_XSP16, literal(-7)))
        CFI V0 load(1, XDATA, add(CFA_XSP16, literal(-8)))
        CFI VB load(1, XDATA, add(CFA_XSP16, literal(-9)))
        CFI R6 load(1, XDATA, add(CFA_XSP16, literal(-10)))
        CFI CFA_SP SP+0
        CFI CFA_XSP16 add(XSP16, 10)
        ; Saved register size: 10
        ; Auto size: 0
//  462   static uint16 voltageAtTemp22;
//  463   static uint8 bCalibrate=TRUE; // Calibrate the first time the temp sensor is read
//  464   uint16 value;
//  465   int8 temp;
//  466 
//  467   #if defined (HAL_MCU_CC2530)
//  468   ATEST = 0x01;
        MOV     A,#0x1
        MOV     DPTR,#0x61bd
        MOVX    @DPTR,A
//  469   TR0  |= 0x01; 
        MOV     DPTR,#0x624b
        MOVX    A,@DPTR
        SETB    0xE0 /* A   */.0
        MOVX    @DPTR,A
//  470   
//  471   /* Clear ADC interrupt flag */
//  472   ADCIF = 0;
        CLR     0x88.5
//  473 
//  474   ADCCON3 = (HAL_ADC_REF_125V | HAL_ADC_DEC_512 | HAL_ADC_CHN_TEMP);
        MOV     0xb6,#0x3e
//  475 
//  476   /* Wait for the conversion to finish */
//  477   while ( !ADCIF );
??readTemp_0:
        MOV     C,0x88.5
        JNC     ??readTemp_0
//  478 
//  479   /* Get the result */
//  480   value = ADCL;
        MOV     R4,0xba
        MOV     DPL,R4
        MOV     DPH,#0x0
        MOV     R2,DPL
        MOV     R3,DPH
//  481   value |= ((uint16) ADCH) << 8;
        MOV     A,0xbb
        MOV     R0,A
        CLR     A
        XCH     A,R0
        MOV     R1,A
        MOV     A,R0
        ORL     A,R2
        MOV     R2,A
        MOV     A,R1
        ORL     A,R3
        MOV     R3,A
//  482 
//  483   // Use the 12 MSB of adcValue
//  484   value >>= 4;
        MOV     ?V0 + 0,R2
        MOV     ?V0 + 1,R3
        MOV     A,#0x4
        MOV     R0,#?V0 + 0
        LCALL   ?US_SHR
        MOV     R2,?V0 + 0
        MOV     R3,?V0 + 1
//  485   
//  486   /*
//  487    * These parameters are typical values and need to be calibrated
//  488    * See the datasheet for the appropriate chip for more details
//  489    * also, the math below may not be very accurate
//  490    */
//  491     /* Assume ADC = 1480 at 25C and ADC = 4/C */
//  492   #define VOLTAGE_AT_TEMP_25        1480
//  493   #define TEMP_COEFFICIENT          4
//  494 
//  495   // Calibrate for 22C the first time the temp sensor is read.
//  496   // This will assume that the demo is started up in temperature of 22C
//  497   if(bCalibrate) {
        MOV     DPTR,#??bCalibrate
        MOVX    A,@DPTR
        JZ      ??readTemp_1
//  498     voltageAtTemp22=value;
        MOV     DPTR,#??voltageAtTemp22
        MOV     A,R2
        MOVX    @DPTR,A
        INC     DPTR
        MOV     A,R3
        MOVX    @DPTR,A
//  499     bCalibrate=FALSE;
        MOV     A,#0x0
        MOV     DPTR,#??bCalibrate
        MOVX    @DPTR,A
//  500   }
//  501   
//  502   temp = 22 + ( (value - voltageAtTemp22) / TEMP_COEFFICIENT );
??readTemp_1:
        MOV     DPTR,#??voltageAtTemp22
        MOVX    A,@DPTR
        MOV     R0,A
        INC     DPTR
        MOVX    A,@DPTR
        MOV     R1,A
        MOV     A,R2
        CLR     C
        SUBB    A,R0
        MOV     ?V0 + 0,A
        MOV     A,R3
        SUBB    A,R1
        MOV     ?V0 + 1,A
        MOV     A,#0x2
        MOV     R0,#?V0 + 0
        LCALL   ?US_SHR
        MOV     A,?V0 + 0
        ADD     A,#0x16
        MOV     R5,A
//  503   
//  504   // Set 0C as minimum temperature, and 100C as max
//  505   if( temp >= 100) 
        MOV     A,R5
        CLR     C
        SUBB    A,#0x64
        MOV     C,0xD0 /* PSW */.2
        XRL     A,PSW
        RLC     A
        JC      ??readTemp_2
//  506   {
//  507     return 100;
        MOV     R1,#0x64
        SJMP    ??readTemp_3
//  508   }
//  509   else if (temp <= 0) {
??readTemp_2:
        MOV     A,R5
        CLR     C
        SUBB    A,#0x1
        MOV     C,0xD0 /* PSW */.2
        XRL     A,PSW
        RLC     A
        JNC     ??readTemp_4
//  510     return 0;
        MOV     R1,#0x0
        SJMP    ??readTemp_3
//  511   }
//  512   else { 
//  513     return temp;
??readTemp_4:
        MOV     A,R5
        MOV     R1,A
??readTemp_3:
        MOV     R7,#0x2
        LJMP    ?BANKED_LEAVE_XDATA
        CFI EndBlock cfiBlock10
        REQUIRE _A_TCON
        REQUIRE ADCCON3
        REQUIRE ADCL
        REQUIRE ADCH
//  514   }
//  515   // Only CC2530 is supported
//  516   #else
//  517   return 0;
//  518   #endif
//  519 }

        RSEG XDATA_Z:XDATA:NOROOT(0)
??voltageAtTemp22:
        DS 2
        REQUIRE __INIT_XDATA_Z

        RSEG XDATA_I:XDATA:NOROOT(0)
        DATA
??bCalibrate:
        DS 1
        REQUIRE `?<Initializer for bCalibrate>`
        REQUIRE __INIT_XDATA_I
//  520 
//  521 /******************************************************************************
//  522  * @fn          readVoltage
//  523  *
//  524  * @brief       read voltage from ADC
//  525  *
//  526  * @param       none
//  527  *              
//  528  * @return      voltage
//  529  */

        RSEG BANKED_CODE:CODE:NOROOT(0)
//  530 static uint8 readVoltage(void)
readVoltage:
        CFI Block cfiBlock11 Using cfiCommon0
        CFI Function readVoltage
//  531 {
        MOV     A,#-0x10
        LCALL   ?BANKED_ENTER_XDATA
        CFI DPH0 load(1, XDATA, add(CFA_XSP16, literal(-1)))
        CFI DPL0 load(1, XDATA, add(CFA_XSP16, literal(-2)))
        CFI ?BRET_EXT load(1, XDATA, add(CFA_XSP16, literal(-3)))
        CFI ?RET_HIGH load(1, XDATA, add(CFA_XSP16, literal(-4)))
        CFI ?RET_LOW load(1, XDATA, add(CFA_XSP16, literal(-5)))
        CFI R7 load(1, XDATA, add(CFA_XSP16, literal(-6)))
        CFI V7 load(1, XDATA, add(CFA_XSP16, literal(-7)))
        CFI V6 load(1, XDATA, add(CFA_XSP16, literal(-8)))
        CFI V5 load(1, XDATA, add(CFA_XSP16, literal(-9)))
        CFI V4 load(1, XDATA, add(CFA_XSP16, literal(-10)))
        CFI V3 load(1, XDATA, add(CFA_XSP16, literal(-11)))
        CFI V2 load(1, XDATA, add(CFA_XSP16, literal(-12)))
        CFI V1 load(1, XDATA, add(CFA_XSP16, literal(-13)))
        CFI V0 load(1, XDATA, add(CFA_XSP16, literal(-14)))
        CFI VB load(1, XDATA, add(CFA_XSP16, literal(-15)))
        CFI R6 load(1, XDATA, add(CFA_XSP16, literal(-16)))
        CFI CFA_SP SP+0
        CFI CFA_XSP16 add(XSP16, 16)
        ; Saved register size: 16
        ; Auto size: 0
//  532   #if defined (HAL_MCU_CC2530)
//  533   uint16 value;
//  534 
//  535   // Clear ADC interrupt flag 
//  536   ADCIF = 0;
        CLR     0x88.5
//  537 
//  538   ADCCON3 = (HAL_ADC_REF_125V | HAL_ADC_DEC_128 | HAL_ADC_CHN_VDD3);
        MOV     0xb6,#0x1f
//  539 
//  540   // Wait for the conversion to finish 
//  541   while ( !ADCIF );
??readVoltage_0:
        MOV     C,0x88.5
        JNC     ??readVoltage_0
//  542 
//  543   // Get the result
//  544   value = ADCL;
        MOV     R2,0xba
        MOV     DPL,R2
        MOV     DPH,#0x0
        MOV     R0,DPL
        MOV     R1,DPH
//  545   value |= ((uint16) ADCH) << 8;
        MOV     A,0xbb
        MOV     R2,A
        CLR     A
        XCH     A,R2
        MOV     R3,A
        MOV     A,R2
        ORL     A,R0
        MOV     R0,A
        MOV     A,R3
        ORL     A,R1
        MOV     R1,A
//  546 
//  547   
//  548   // value now contains measurement of Vdd/3
//  549   // 0 indicates 0V and 32767 indicates 1.25V
//  550   // voltage = (value*3*1.25)/32767 volts
//  551   // we will multiply by this by 10 to allow units of 0.1 volts
//  552   value = value >> 6;   // divide first by 2^6
        MOV     ?V0 + 0,R0
        MOV     ?V0 + 1,R1
        MOV     A,#0x6
        MOV     R0,#?V0 + 0
        LCALL   ?US_SHR
        MOV     R0,?V0 + 0
        MOV     R1,?V0 + 1
//  553   value = (uint16)(value * 37.5);
        MOV     ?V0 + 0,R0
        MOV     ?V0 + 1,R1
        CLR     A
        MOV     ?V0 + 2,A
        MOV     ?V0 + 3,A
        MOV     R0,#?V0 + 0
        LCALL   ?UL_TO_FLT
        MOV     DPTR,#__Constant_42160000
        MOV     R0,#?V0 + 4
        LCALL   ?L_MOV_X
        MOV     R0,#?V0 + 0
        MOV     R1,#?V0 + 4
        LCALL   ?FLT_MUL
        MOV     R0,#?V0 + 0
        LCALL   ?FLT_TO_L
        MOV     R0,?V0 + 0
        MOV     R1,?V0 + 1
//  554   value = value >> 9;   // ...and later by 2^9...to prevent overflow during multiplication
        MOV     ?V0 + 0,R0
        MOV     ?V0 + 1,R1
        MOV     A,#0x9
        MOV     R0,#?V0 + 0
        LCALL   ?US_SHR
//  555 
//  556   return value;
        MOV     R1,?V0 + 0
        MOV     R7,#0x8
        LJMP    ?BANKED_LEAVE_XDATA
        CFI EndBlock cfiBlock11
        REQUIRE _A_TCON
        REQUIRE ADCCON3
        REQUIRE ADCL
        REQUIRE ADCH
//  557   #else
//  558   return 0;
//  559   #endif // CC2530
//  560 }

        RSEG XDATA_ID:CODE:NOROOT(0)
        DATA
`?<Initializer for myReportPeriod>`:
        DW 2000

        RSEG XDATA_ID:CODE:NOROOT(0)
        DATA
`?<Initializer for myBindRetryDelay>`:
        DW 2000

        RSEG XDATA_ID:CODE:NOROOT(0)
        DATA
`?<Initializer for bCalibrate>`:
        DB 1

        RSEG BANK_RELAYS:CODE:REORDER:NOROOT(0)
??zb_HandleOsalEvent?relay:
        LCALL   ?BDISPATCH
        DATA
        DC24    zb_HandleOsalEvent

        RSEG BANK_RELAYS:CODE:REORDER:NOROOT(0)
??zb_HandleKeys?relay:
        LCALL   ?BDISPATCH
        DATA
        DC24    zb_HandleKeys

        RSEG BANK_RELAYS:CODE:REORDER:NOROOT(0)
??zb_StartConfirm?relay:
        LCALL   ?BDISPATCH
        DATA
        DC24    zb_StartConfirm

        RSEG BANK_RELAYS:CODE:REORDER:NOROOT(0)
??zb_SendDataConfirm?relay:
        LCALL   ?BDISPATCH
        DATA
        DC24    zb_SendDataConfirm

        RSEG BANK_RELAYS:CODE:REORDER:NOROOT(0)
??zb_BindConfirm?relay:
        LCALL   ?BDISPATCH
        DATA
        DC24    zb_BindConfirm

        RSEG BANK_RELAYS:CODE:REORDER:NOROOT(0)
??zb_AllowBindConfirm?relay:
        LCALL   ?BDISPATCH
        DATA
        DC24    zb_AllowBindConfirm

        RSEG BANK_RELAYS:CODE:REORDER:NOROOT(0)
??zb_FindDeviceConfirm?relay:
        LCALL   ?BDISPATCH
        DATA
        DC24    zb_FindDeviceConfirm

        RSEG BANK_RELAYS:CODE:REORDER:NOROOT(0)
??zb_ReceiveDataIndication?relay:
        LCALL   ?BDISPATCH
        DATA
        DC24    zb_ReceiveDataIndication

        RSEG BANK_RELAYS:CODE:REORDER:NOROOT(0)
??uartRxCB?relay:
        LCALL   ?BDISPATCH
        DATA
        DC24    uartRxCB

        RSEG BANK_RELAYS:CODE:REORDER:NOROOT(0)
??sendReport?relay:
        LCALL   ?BDISPATCH
        DATA
        DC24    sendReport

        RSEG BANK_RELAYS:CODE:REORDER:NOROOT(0)
??readTemp?relay:
        LCALL   ?BDISPATCH
        DATA
        DC24    readTemp

        RSEG BANK_RELAYS:CODE:REORDER:NOROOT(0)
??readVoltage?relay:
        LCALL   ?BDISPATCH
        DATA
        DC24    readVoltage

        RSEG XDATA_ROM_C:CONST:REORDER:NOROOT(0)
        DATA
`?<Constant "SensorDemo">`:
        DB "SensorDemo"

        RSEG XDATA_ROM_C:CONST:REORDER:NOROOT(0)
        DATA
`?<Constant "Sensor">`:
        DB "Sensor"

        RSEG XDATA_ROM_C:CONST:REORDER:NOROOT(0)
        DATA
__Constant_42160000:
        DD 42160000H

        END
//  561 
// 
// 839 bytes in segment BANKED_CODE
//  72 bytes in segment BANK_RELAYS
//   4 bytes in segment SFR_AN
//   5 bytes in segment XDATA_I
//   5 bytes in segment XDATA_ID
//  36 bytes in segment XDATA_ROM_C
//   8 bytes in segment XDATA_Z
// 
// 916 bytes of CODE  memory
//  32 bytes of CONST memory (+ 4 bytes shared)
//   0 bytes of DATA  memory (+ 4 bytes shared)
//  13 bytes of XDATA memory
//
//Errors: none
//Warnings: none
