///////////////////////////////////////////////////////////////////////////////
//                                                                            /
// IAR C/C++ Compiler V8.10.1.10194/W32 for 8051        16/Dec/2015  18:42:18 /
// Copyright 2004-2011 IAR Systems AB.                                        /
//                                                                            /
//    Core               =  plain                                             /
//    Code model         =  banked                                            /
//    Data model         =  large                                             /
//    Calling convention =  xdata reentrant                                   /
//    Constant location  =  data_rom                                          /
//    Dptr setup         =  1,16                                              /
//    Source file        =  K:\宋磊 自写源码\ZigBee                           /
//                          相关\ZStack-CC2530-2.3.0-1.4.0_sl（LED和透传）\ZS /
//                          tack-CC2530-2.3.0-1.4.0_sl\Projects\zstack\Sample /
//                          s\LED_App_v2(可用)\Source\EndDevice.c             /
//    Command line       =  -f "K:\宋磊 自写源码\ZigBee                       /
//                          相关\ZStack-CC2530-2.3.0-1.4.0_sl（LED和透传）\ZS /
//                          tack-CC2530-2.3.0-1.4.0_sl\Projects\zstack\Sample /
//                          s\LED_App_v2(可用)\CC2530DB\..\..\..\Tools\CC2530 /
//                          DB\f8wEndev.cfg" (-DCPU32MHZ -DROOT=__near_func   /
//                          -DBLINK_LEDS) -f "K:\宋磊 自写源码\ZigBee         /
//                          相关\ZStack-CC2530-2.3.0-1.4.0_sl（LED和透传）\ZS /
//                          tack-CC2530-2.3.0-1.4.0_sl\Projects\zstack\Sample /
//                          s\LED_App_v2(可用)\CC2530DB\..\..\..\Tools\CC2530 /
//                          DB\f8wConfig.cfg" (-DSECURE=0                     /
//                          -DZG_SECURE_DYNAMIC=0 -DREFLECTOR                 /
//                          -DDEFAULT_CHANLIST=0x00000800                     /
//                          -DZDAPP_CONFIG_PAN_ID=0x1230                      /
//                          -DNWK_START_DELAY=100 -DEXTENDED_JOINING_RANDOM_M /
//                          ASK=0x007F -DBEACON_REQUEST_DELAY=100             /
//                          -DBEACON_REQ_DELAY_MASK=0x00FF                    /
//                          -DROUTE_EXPIRY_TIME=30 -DAPSC_ACK_WAIT_DURATION_P /
//                          OLLED=3000 -DNWK_INDIRECT_MSG_TIMEOUT=7           /
//                          -DMAX_RREQ_ENTRIES=8 -DAPSC_MAX_FRAME_RETRIES=3   /
//                          -DNWK_MAX_DATA_RETRIES=2                          /
//                          -DMAX_POLL_FAILURE_RETRIES=2 -DMAX_BCAST=9        /
//                          -DAPS_MAX_GROUPS=16 -DMAX_RTG_ENTRIES=40          /
//                          -DNWK_MAX_BINDING_ENTRIES=4                       /
//                          -DMAX_BINDING_CLUSTER_IDS=4                       /
//                          "-DDEFAULT_KEY={0x01, 0x03, 0x05, 0x07, 0x09,     /
//                          0x0B, 0x0D, 0x0F, 0x00, 0x02, 0x04, 0x06, 0x08,   /
//                          0x0A, 0x0C, 0x0D}" -DMAC_MAX_FRAME_SIZE=116       /
//                          "-DCONST=const __code" -DGENERIC=__generic        /
//                          -DRFD_RCVC_ALWAYS_ON=FALSE -DPOLL_RATE=1000       /
//                          -DQUEUED_POLL_RATE=100 -DRESPONSE_POLL_RATE=100)  /
//                          -DREJOIN_POLL_RATE=440 "K:\宋磊 自写源码\ZigBee   /
//                          相关\ZStack-CC2530-2.3.0-1.4.0_sl（LED和透传）\ZS /
//                          tack-CC2530-2.3.0-1.4.0_sl\Projects\zstack\Sample /
//                          s\LED_App_v2(可用)\Source\EndDevice.c" -D         /
//                          NWK_AUTO_POLL -D ZTOOL_P1 -D MT_TASK -D           /
//                          MT_SYS_FUNC -D MT_ZDO_FUNC -D                     /
//                          LCD_SUPPORTED=DEBUG -D xPOWER_SAVING -lC          /
//                          "K:\宋磊 自写源码\ZigBee                          /
//                          相关\ZStack-CC2530-2.3.0-1.4.0_sl（LED和透传）\ZS /
//                          tack-CC2530-2.3.0-1.4.0_sl\Projects\zstack\Sample /
//                          s\LED_App_v2(可用)\CC2530DB\EndDeviceEB\List\"    /
//                          -lA "K:\宋磊 自写源码\ZigBee                      /
//                          相关\ZStack-CC2530-2.3.0-1.4.0_sl（LED和透传）\ZS /
//                          tack-CC2530-2.3.0-1.4.0_sl\Projects\zstack\Sample /
//                          s\LED_App_v2(可用)\CC2530DB\EndDeviceEB\List\"    /
//                          --diag_suppress Pe001,Pa010 -o "K:\宋磊           /
//                          自写源码\ZigBee 相关\ZStack-CC2530-2.3.0-1.4.0_sl /
//                          （LED和透传）\ZStack-CC2530-2.3.0-1.4.0_sl\Projec /
//                          ts\zstack\Samples\LED_App_v2(可用)\CC2530DB\EndDe /
//                          viceEB\Obj\" -e --debug --core=plain --dptr=16,1  /
//                          --data_model=large --code_model=banked            /
//                          --calling_convention=xdata_reentrant              /
//                          --place_constants=data_rom --nr_virtual_regs 16   /
//                          -I "K:\宋磊 自写源码\ZigBee                       /
//                          相关\ZStack-CC2530-2.3.0-1.4.0_sl（LED和透传）\ZS /
//                          tack-CC2530-2.3.0-1.4.0_sl\Projects\zstack\Sample /
//                          s\LED_App_v2(可用)\CC2530DB\" -I "K:\宋磊         /
//                          自写源码\ZigBee 相关\ZStack-CC2530-2.3.0-1.4.0_sl /
//                          （LED和透传）\ZStack-CC2530-2.3.0-1.4.0_sl\Projec /
//                          ts\zstack\Samples\LED_App_v2(可用)\CC2530DB\..\SO /
//                          URCE\" -I "K:\宋磊 自写源码\ZigBee                /
//                          相关\ZStack-CC2530-2.3.0-1.4.0_sl（LED和透传）\ZS /
//                          tack-CC2530-2.3.0-1.4.0_sl\Projects\zstack\Sample /
//                          s\LED_App_v2(可用)\CC2530DB\..\..\..\ZMAIN\TI2530 /
//                          DB\" -I "K:\宋磊 自写源码\ZigBee                  /
//                          相关\ZStack-CC2530-2.3.0-1.4.0_sl（LED和透传）\ZS /
//                          tack-CC2530-2.3.0-1.4.0_sl\Projects\zstack\Sample /
//                          s\LED_App_v2(可用)\CC2530DB\..\..\..\..\..\COMPON /
//                          ENTS\MT\" -I "K:\宋磊 自写源码\ZigBee             /
//                          相关\ZStack-CC2530-2.3.0-1.4.0_sl（LED和透传）\ZS /
//                          tack-CC2530-2.3.0-1.4.0_sl\Projects\zstack\Sample /
//                          s\LED_App_v2(可用)\CC2530DB\..\..\..\..\..\COMPON /
//                          ENTS\HAL\INCLUDE\" -I "K:\宋磊 自写源码\ZigBee    /
//                          相关\ZStack-CC2530-2.3.0-1.4.0_sl（LED和透传）\ZS /
//                          tack-CC2530-2.3.0-1.4.0_sl\Projects\zstack\Sample /
//                          s\LED_App_v2(可用)\CC2530DB\..\..\..\..\..\COMPON /
//                          ENTS\HAL\TARGET\CC2530EB\" -I "K:\宋磊            /
//                          自写源码\ZigBee 相关\ZStack-CC2530-2.3.0-1.4.0_sl /
//                          （LED和透传）\ZStack-CC2530-2.3.0-1.4.0_sl\Projec /
//                          ts\zstack\Samples\LED_App_v2(可用)\CC2530DB\..\.. /
//                          \..\..\..\COMPONENTS\OSAL\MCU\CCSOC\" -I          /
//                          "K:\宋磊 自写源码\ZigBee                          /
//                          相关\ZStack-CC2530-2.3.0-1.4.0_sl（LED和透传）\ZS /
//                          tack-CC2530-2.3.0-1.4.0_sl\Projects\zstack\Sample /
//                          s\LED_App_v2(可用)\CC2530DB\..\..\..\..\..\COMPON /
//                          ENTS\OSAL\INCLUDE\" -I "K:\宋磊 自写源码\ZigBee   /
//                          相关\ZStack-CC2530-2.3.0-1.4.0_sl（LED和透传）\ZS /
//                          tack-CC2530-2.3.0-1.4.0_sl\Projects\zstack\Sample /
//                          s\LED_App_v2(可用)\CC2530DB\..\..\..\..\..\COMPON /
//                          ENTS\STACK\AF\" -I "K:\宋磊 自写源码\ZigBee       /
//                          相关\ZStack-CC2530-2.3.0-1.4.0_sl（LED和透传）\ZS /
//                          tack-CC2530-2.3.0-1.4.0_sl\Projects\zstack\Sample /
//                          s\LED_App_v2(可用)\CC2530DB\..\..\..\..\..\COMPON /
//                          ENTS\STACK\NWK\" -I "K:\宋磊 自写源码\ZigBee      /
//                          相关\ZStack-CC2530-2.3.0-1.4.0_sl（LED和透传）\ZS /
//                          tack-CC2530-2.3.0-1.4.0_sl\Projects\zstack\Sample /
//                          s\LED_App_v2(可用)\CC2530DB\..\..\..\..\..\COMPON /
//                          ENTS\STACK\SEC\" -I "K:\宋磊 自写源码\ZigBee      /
//                          相关\ZStack-CC2530-2.3.0-1.4.0_sl（LED和透传）\ZS /
//                          tack-CC2530-2.3.0-1.4.0_sl\Projects\zstack\Sample /
//                          s\LED_App_v2(可用)\CC2530DB\..\..\..\..\..\COMPON /
//                          ENTS\STACK\SAPI\" -I "K:\宋磊 自写源码\ZigBee     /
//                          相关\ZStack-CC2530-2.3.0-1.4.0_sl（LED和透传）\ZS /
//                          tack-CC2530-2.3.0-1.4.0_sl\Projects\zstack\Sample /
//                          s\LED_App_v2(可用)\CC2530DB\..\..\..\..\..\COMPON /
//                          ENTS\STACK\SYS\" -I "K:\宋磊 自写源码\ZigBee      /
//                          相关\ZStack-CC2530-2.3.0-1.4.0_sl（LED和透传）\ZS /
//                          tack-CC2530-2.3.0-1.4.0_sl\Projects\zstack\Sample /
//                          s\LED_App_v2(可用)\CC2530DB\..\..\..\..\..\COMPON /
//                          ENTS\STACK\ZDO\" -I "K:\宋磊 自写源码\ZigBee      /
//                          相关\ZStack-CC2530-2.3.0-1.4.0_sl（LED和透传）\ZS /
//                          tack-CC2530-2.3.0-1.4.0_sl\Projects\zstack\Sample /
//                          s\LED_App_v2(可用)\CC2530DB\..\..\..\..\..\COMPON /
//                          ENTS\ZMAC\F8W\" -I "K:\宋磊 自写源码\ZigBee       /
//                          相关\ZStack-CC2530-2.3.0-1.4.0_sl（LED和透传）\ZS /
//                          tack-CC2530-2.3.0-1.4.0_sl\Projects\zstack\Sample /
//                          s\LED_App_v2(可用)\CC2530DB\..\..\..\..\..\COMPON /
//                          ENTS\ZMAC\" -I "K:\宋磊 自写源码\ZigBee           /
//                          相关\ZStack-CC2530-2.3.0-1.4.0_sl（LED和透传）\ZS /
//                          tack-CC2530-2.3.0-1.4.0_sl\Projects\zstack\Sample /
//                          s\LED_App_v2(可用)\CC2530DB\..\..\..\..\..\COMPON /
//                          ENTS\SERVICES\SADDR\" -I "K:\宋磊                 /
//                          自写源码\ZigBee 相关\ZStack-CC2530-2.3.0-1.4.0_sl /
//                          （LED和透传）\ZStack-CC2530-2.3.0-1.4.0_sl\Projec /
//                          ts\zstack\Samples\LED_App_v2(可用)\CC2530DB\..\.. /
//                          \..\..\..\COMPONENTS\SERVICES\SDATA\" -I          /
//                          "K:\宋磊 自写源码\ZigBee                          /
//                          相关\ZStack-CC2530-2.3.0-1.4.0_sl（LED和透传）\ZS /
//                          tack-CC2530-2.3.0-1.4.0_sl\Projects\zstack\Sample /
//                          s\LED_App_v2(可用)\CC2530DB\..\..\..\..\..\COMPON /
//                          ENTS\MAC\INCLUDE\" -I "K:\宋磊 自写源码\ZigBee    /
//                          相关\ZStack-CC2530-2.3.0-1.4.0_sl（LED和透传）\ZS /
//                          tack-CC2530-2.3.0-1.4.0_sl\Projects\zstack\Sample /
//                          s\LED_App_v2(可用)\CC2530DB\..\..\..\..\..\COMPON /
//                          ENTS\MAC\HIGH_LEVEL\" -I "K:\宋磊                 /
//                          自写源码\ZigBee 相关\ZStack-CC2530-2.3.0-1.4.0_sl /
//                          （LED和透传）\ZStack-CC2530-2.3.0-1.4.0_sl\Projec /
//                          ts\zstack\Samples\LED_App_v2(可用)\CC2530DB\..\.. /
//                          \..\..\..\COMPONENTS\MAC\LOW_LEVEL\srf04\" -I     /
//                          "K:\宋磊 自写源码\ZigBee                          /
//                          相关\ZStack-CC2530-2.3.0-1.4.0_sl（LED和透传）\ZS /
//                          tack-CC2530-2.3.0-1.4.0_sl\Projects\zstack\Sample /
//                          s\LED_App_v2(可用)\CC2530DB\..\..\..\..\..\COMPON /
//                          ENTS\MAC\LOW_LEVEL\srf04\SINGLE_CHIP\" -Ohz       /
//                          --require_prototypes                              /
//    List file          =  K:\宋磊 自写源码\ZigBee                           /
//                          相关\ZStack-CC2530-2.3.0-1.4.0_sl（LED和透传）\ZS /
//                          tack-CC2530-2.3.0-1.4.0_sl\Projects\zstack\Sample /
//                          s\LED_App_v2(可用)\CC2530DB\EndDeviceEB\List\EndD /
//                          evice.s51                                         /
//                                                                            /
//                                                                            /
///////////////////////////////////////////////////////////////////////////////

        NAME EndDevice

        RTMODEL "__SystemLibrary", "CLib"
        RTMODEL "__calling_convention", "xdata_reentrant"
        RTMODEL "__code_model", "banked"
        RTMODEL "__core", "plain"
        RTMODEL "__data_model", "large"
        RTMODEL "__dptr_size", "16"
        RTMODEL "__extended_stack", "disabled"
        RTMODEL "__location_for_constants", "data"
        RTMODEL "__number_of_dptrs", "1"
        RTMODEL "__rt_version", "1"

        RSEG DOVERLAY:DATA:NOROOT(0)
        RSEG IOVERLAY:IDATA:NOROOT(0)
        RSEG ISTACK:IDATA:NOROOT(0)
        RSEG PSTACK:XDATA:NOROOT(0)
        RSEG XSTACK:XDATA:NOROOT(0)

        EXTERN ?ALLOC_XSTACK8
        EXTERN ?BANKED_ENTER_XDATA
        EXTERN ?BANKED_LEAVE_XDATA
        EXTERN ?BDISPATCH
        EXTERN ?DEALLOC_XSTACK8
        EXTERN ?MOVE_LONG8_XDATA_XDATA
        EXTERN ?PUSH_XSTACK_I_ONE
        EXTERN ?PUSH_XSTACK_I_TWO
        EXTERN ?V0
        EXTERN ?XSP
        EXTERN ?XSTACK_DISP0_8
        EXTERN __INIT_XDATA_Z

        PUBLIC ??GenericApp_Init?relay
        FUNCTION ??GenericApp_Init?relay,0203H
        PUBLIC ??GenericApp_ProcessEvent?relay
        FUNCTION ??GenericApp_ProcessEvent?relay,0203H
        PUBLIC ??GenericApp_SendTheMessage?relay
        FUNCTION ??GenericApp_SendTheMessage?relay,0203H
        PUBLIC GenericApp_ClusterList
        PUBLIC GenericApp_Init
        FUNCTION GenericApp_Init,021203H
        ARGFRAME XSTACK, 0, STACK
        LOCFRAME XSTACK, 9, STACK
        PUBLIC GenericApp_NwkState
        PUBLIC GenericApp_ProcessEvent
        FUNCTION GenericApp_ProcessEvent,021203H
        ARGFRAME XSTACK, 0, STACK
        LOCFRAME XSTACK, 12, STACK
        PUBLIC GenericApp_SendTheMessage
        FUNCTION GenericApp_SendTheMessage,021203H
        ARGFRAME XSTACK, 12, STACK
        ARGFRAME IOVERLAY, 0, STATIC
        ARGFRAME DOVERLAY, 0, STATIC
        LOCFRAME ISTACK, 2, STACK
        LOCFRAME XSTACK, 35, STACK
        PUBLIC GenericApp_SimpleDesc
        PUBLIC GenericApp_TaskID
        PUBLIC GenericApp_TransID
        PUBLIC GenericApp_epDesc
        
        CFI Names cfiNames0
        CFI StackFrame CFA_SP SP IDATA
        CFI StackFrame CFA_PSP16 PSP16 XDATA
        CFI StackFrame CFA_XSP16 XSP16 XDATA
        CFI StaticOverlayFrame CFA_IOVERLAY IOVERLAY
        CFI StaticOverlayFrame CFA_DOVERLAY DOVERLAY
        CFI Resource `PSW.CY`:1, `B.BR0`:1, `B.BR1`:1, `B.BR2`:1, `B.BR3`:1
        CFI Resource `B.BR4`:1, `B.BR5`:1, `B.BR6`:1, `B.BR7`:1, `VB.BR8`:1
        CFI Resource `VB.BR9`:1, `VB.BR10`:1, `VB.BR11`:1, `VB.BR12`:1
        CFI Resource `VB.BR13`:1, `VB.BR14`:1, `VB.BR15`:1, VB:8, B:8, A:8
        CFI Resource PSW:8, DPL0:8, DPH0:8, R0:8, R1:8, R2:8, R3:8, R4:8, R5:8
        CFI Resource R6:8, R7:8, V0:8, V1:8, V2:8, V3:8, V4:8, V5:8, V6:8, V7:8
        CFI Resource V8:8, V9:8, V10:8, V11:8, V12:8, V13:8, V14:8, V15:8, SP:8
        CFI Resource PSPH:8, PSPL:8, PSP16:16, XSPH:8, XSPL:8, XSP16:16
        CFI VirtualResource ?RET:24
        CFI Resource ?BRET_EXT:8
        CFI VirtualResource ?RET_HIGH:8, ?RET_LOW:8
        CFI ResourceParts PSP16 PSPH, PSPL
        CFI ResourceParts XSP16 XSPH, XSPL
        CFI ResourceParts ?RET ?BRET_EXT, ?RET_HIGH, ?RET_LOW
        CFI EndNames cfiNames0
        
        CFI Common cfiCommon0 Using cfiNames0
        CFI CodeAlign 1
        CFI DataAlign -1
        CFI ReturnAddress ?RET CODE
        CFI CFA_DOVERLAY Used
        CFI CFA_IOVERLAY Used
        CFI CFA_SP SP+-3
        CFI CFA_PSP16 PSP16+0
        CFI CFA_XSP16 XSP16+0
        CFI `PSW.CY` SameValue
        CFI `B.BR0` SameValue
        CFI `B.BR1` SameValue
        CFI `B.BR2` SameValue
        CFI `B.BR3` SameValue
        CFI `B.BR4` SameValue
        CFI `B.BR5` SameValue
        CFI `B.BR6` SameValue
        CFI `B.BR7` SameValue
        CFI `VB.BR8` SameValue
        CFI `VB.BR9` SameValue
        CFI `VB.BR10` SameValue
        CFI `VB.BR11` SameValue
        CFI `VB.BR12` SameValue
        CFI `VB.BR13` SameValue
        CFI `VB.BR14` SameValue
        CFI `VB.BR15` SameValue
        CFI VB SameValue
        CFI B Undefined
        CFI A Undefined
        CFI PSW SameValue
        CFI DPL0 SameValue
        CFI DPH0 SameValue
        CFI R0 Undefined
        CFI R1 Undefined
        CFI R2 Undefined
        CFI R3 Undefined
        CFI R4 Undefined
        CFI R5 Undefined
        CFI R6 SameValue
        CFI R7 SameValue
        CFI V0 SameValue
        CFI V1 SameValue
        CFI V2 SameValue
        CFI V3 SameValue
        CFI V4 SameValue
        CFI V5 SameValue
        CFI V6 SameValue
        CFI V7 SameValue
        CFI V8 SameValue
        CFI V9 SameValue
        CFI V10 SameValue
        CFI V11 SameValue
        CFI V12 SameValue
        CFI V13 SameValue
        CFI V14 SameValue
        CFI V15 SameValue
        CFI PSPH Undefined
        CFI PSPL Undefined
        CFI XSPH Undefined
        CFI XSPL Undefined
        CFI ?RET Concat
        CFI ?BRET_EXT Frame(CFA_SP, 3)
        CFI ?RET_HIGH Frame(CFA_SP, 2)
        CFI ?RET_LOW Frame(CFA_SP, 1)
        CFI EndCommon cfiCommon0
        
afRegister          SYMBOL "afRegister"
osal_msg_receive    SYMBOL "osal_msg_receive"
osal_start_reload_timer SYMBOL "osal_start_reload_timer"
osal_msg_deallocate SYMBOL "osal_msg_deallocate"
osal_strlen         SYMBOL "osal_strlen"
AF_DataRequest      SYMBOL "AF_DataRequest"
??AF_DataRequest?relay SYMBOL "?relay", AF_DataRequest
??afRegister?relay  SYMBOL "?relay", afRegister
??osal_msg_deallocate?relay SYMBOL "?relay", osal_msg_deallocate
??osal_msg_receive?relay SYMBOL "?relay", osal_msg_receive
??osal_start_reload_timer?relay SYMBOL "?relay", osal_start_reload_timer
??osal_strlen?relay SYMBOL "?relay", osal_strlen
GenericApp_Init     SYMBOL "GenericApp_Init"
??GenericApp_Init?relay SYMBOL "?relay", GenericApp_Init
GenericApp_ProcessEvent SYMBOL "GenericApp_ProcessEvent"
??GenericApp_ProcessEvent?relay SYMBOL "?relay", GenericApp_ProcessEvent
GenericApp_SendTheMessage SYMBOL "GenericApp_SendTheMessage"
??GenericApp_SendTheMessage?relay SYMBOL "?relay", GenericApp_SendTheMessage

        EXTERN afRegister
        FUNCTION afRegister,0202H
        ARGFRAME ISTACK, 0, STACK
        ARGFRAME PSTACK, 0, STACK
        ARGFRAME XSTACK, 9, STACK
        ARGFRAME IOVERLAY, 0, STATIC
        ARGFRAME DOVERLAY, 0, STATIC
        EXTERN osal_msg_receive
        FUNCTION osal_msg_receive,0202H
        ARGFRAME ISTACK, 0, STACK
        ARGFRAME PSTACK, 0, STACK
        ARGFRAME XSTACK, 12, STACK
        ARGFRAME IOVERLAY, 0, STATIC
        ARGFRAME DOVERLAY, 0, STATIC
        EXTERN osal_start_reload_timer
        FUNCTION osal_start_reload_timer,0202H
        ARGFRAME ISTACK, 0, STACK
        ARGFRAME PSTACK, 0, STACK
        ARGFRAME XSTACK, 12, STACK
        ARGFRAME IOVERLAY, 0, STATIC
        ARGFRAME DOVERLAY, 0, STATIC
        EXTERN osal_msg_deallocate
        FUNCTION osal_msg_deallocate,0202H
        ARGFRAME ISTACK, 0, STACK
        ARGFRAME PSTACK, 0, STACK
        ARGFRAME XSTACK, 12, STACK
        ARGFRAME IOVERLAY, 0, STATIC
        ARGFRAME DOVERLAY, 0, STATIC
        EXTERN osal_strlen
        FUNCTION osal_strlen,0202H
        ARGFRAME ISTACK, 0, STACK
        ARGFRAME PSTACK, 0, STACK
        ARGFRAME XSTACK, 31, STACK
        ARGFRAME IOVERLAY, 0, STATIC
        ARGFRAME DOVERLAY, 0, STATIC
        EXTERN AF_DataRequest
        FUNCTION AF_DataRequest,0202H
        ARGFRAME ISTACK, 0, STACK
        ARGFRAME PSTACK, 0, STACK
        ARGFRAME XSTACK, 35, STACK
        ARGFRAME IOVERLAY, 0, STATIC
        ARGFRAME DOVERLAY, 0, STATIC
        EXTERN ??AF_DataRequest?relay
        FUNCTION ??AF_DataRequest?relay,00H
        EXTERN ??afRegister?relay
        FUNCTION ??afRegister?relay,00H
        EXTERN ??osal_msg_deallocate?relay
        FUNCTION ??osal_msg_deallocate?relay,00H
        EXTERN ??osal_msg_receive?relay
        FUNCTION ??osal_msg_receive?relay,00H
        EXTERN ??osal_start_reload_timer?relay
        FUNCTION ??osal_start_reload_timer?relay,00H
        EXTERN ??osal_strlen?relay
        FUNCTION ??osal_strlen?relay,00H

// K:\宋磊 自写源码\ZigBee 相关\ZStack-CC2530-2.3.0-1.4.0_sl（LED和透传）\ZStack-CC2530-2.3.0-1.4.0_sl\Projects\zstack\Samples\LED_App_v2(可用)\Source\EndDevice.c
//    1 /**************************************************************************************************
//    2   Filename:       EendDevice.c
//    3   Revised:        $Date: 2009-03-18 15:56:27 -0700 (Wed, 18 Mar 2009) $
//    4   Revision:       $Revision: 19453 $
//    5 
//    6   Description:    Generic Application (no Profile).
//    7 
//    8 
//    9   Copyright 2004-2009 Texas Instruments Incorporated. All rights reserved.
//   10 
//   11   IMPORTANT: Your use of this Software is limited to those specific rights
//   12   granted under the terms of a software license agreement between the user
//   13   who downloaded the software, his/her employer (which must be your employer)
//   14   and Texas Instruments Incorporated (the "License").  You may not use this
//   15   Software unless you agree to abide by the terms of the License. The License
//   16   limits your use, and you acknowledge, that the Software may not be modified,
//   17   copied or distributed unless embedded on a Texas Instruments microcontroller
//   18   or used solely and exclusively in conjunction with a Texas Instruments radio
//   19   frequency transceiver, which is integrated into your product.  Other than for
//   20   the foregoing purpose, you may not use, reproduce, copy, prepare derivative
//   21   works of, modify, distribute, perform, display or sell this Software and/or
//   22   its documentation for any purpose.
//   23 
//   24   YOU FURTHER ACKNOWLEDGE AND AGREE THAT THE SOFTWARE AND DOCUMENTATION ARE
//   25   PROVIDED AS IS?WITHOUT WARRANTY OF ANY KIND, EITHER EXPRESS OR IMPLIED, 
//   26   INCLUDING WITHOUT LIMITATION, ANY WARRANTY OF MERCHANTABILITY, TITLE, 
//   27   NON-INFRINGEMENT AND FITNESS FOR A PARTICULAR PURPOSE. IN NO EVENT SHALL
//   28   TEXAS INSTRUMENTS OR ITS LICENSORS BE LIABLE OR OBLIGATED UNDER CONTRACT,
//   29   NEGLIGENCE, STRICT LIABILITY, CONTRIBUTION, BREACH OF WARRANTY, OR OTHER
//   30   LEGAL EQUITABLE THEORY ANY DIRECT OR INDIRECT DAMAGES OR EXPENSES
//   31   INCLUDING BUT NOT LIMITED TO ANY INCIDENTAL, SPECIAL, INDIRECT, PUNITIVE
//   32   OR CONSEQUENTIAL DAMAGES, LOST PROFITS OR LOST DATA, COST OF PROCUREMENT
//   33   OF SUBSTITUTE GOODS, TECHNOLOGY, SERVICES, OR ANY CLAIMS BY THIRD PARTIES
//   34   (INCLUDING BUT NOT LIMITED TO ANY DEFENSE THEREOF), OR OTHER SIMILAR COSTS.
//   35 
//   36   Should you have any questions regarding your right to use this Software,
//   37   contact Texas Instruments Incorporated at www.TI.com. 
//   38 **************************************************************************************************/
//   39 
//   40 /*********************************************************************
//   41   This application isn't intended to do anything useful, it is
//   42   intended to be a simple example of an application's structure.
//   43 
//   44   This application sends "Hello World" to another "Generic"
//   45   application every 15 seconds.  The application will also
//   46   receive "Hello World" packets.
//   47 
//   48   The "Hello World" messages are sent/received as MSG type message.
//   49 
//   50   This applications doesn't have a profile, so it handles everything
//   51   directly - itself.
//   52 
//   53   Key control:
//   54     SW1:
//   55     SW2:  initiates end device binding
//   56     SW3:
//   57     SW4:  initiates a match description request
//   58 *********************************************************************/
//   59 
//   60 /*********************************************************************
//   61  * INCLUDES
//   62  */
//   63 #include "OSAL.h"
//   64 #include "AF.h"
//   65 #include "ZDApp.h"
//   66 #include "ZDObject.h"
//   67 #include "ZDProfile.h"
//   68 
//   69 #include "Coordinator.h"
//   70 #include "DebugTrace.h"
//   71 
//   72 #if !defined( WIN32 )
//   73   #include "OnBoard.h"
//   74 #endif
//   75 
//   76 /* HAL */
//   77 #include "hal_lcd.h"
//   78 #include "hal_led.h"
//   79 #include "hal_key.h"
//   80 #include "hal_uart.h"
//   81 
//   82 // This list should be filled with Application specific Cluster IDs.

        RSEG XDATA_ROM_C:CONST:REORDER:NOROOT(0)
        DATA16
//   83 const cId_t GenericApp_ClusterList[GENERICAPP_MAX_CLUSTERS] =
GenericApp_ClusterList:
        DW 1
//   84 {
//   85   GENERICAPP_CLUSTERID
//   86 };
//   87 
//   88 

        RSEG XDATA_ROM_C:CONST:REORDER:NOROOT(0)
        DATA8
//   89 const SimpleDescriptionFormat_t GenericApp_SimpleDesc =
GenericApp_SimpleDesc:
        DB 10
        DATA16
        DW 3844
        DW 1
        DATA8
        DB 0
        DB 0
        DATA16
        DW 0H
        DATA8
        DB 1
        DATA16
        DW GenericApp_ClusterList
//   90 {
//   91   GENERICAPP_ENDPOINT,              //  int Endpoint;
//   92   GENERICAPP_PROFID,                //  uint16 AppProfId[2];
//   93   GENERICAPP_DEVICEID,              //  uint16 AppDeviceId[2];
//   94   GENERICAPP_DEVICE_VERSION,        //  int   AppDevVer:4;
//   95   GENERICAPP_FLAGS,                 //  int   AppFlags:4;
//   96   0,          //  byte  AppNumInClusters;
//   97   (cId_t *)NULL,  //  byte *pAppInClusterList;
//   98   GENERICAPP_MAX_CLUSTERS,          //  byte  AppNumInClusters;
//   99   (cId_t *)GenericApp_ClusterList   //  byte *pAppInClusterList;
//  100 };
//  101 
//  102 
//  103 // This is the Endpoint/Interface description.  It is defined here, but
//  104 // filled-in in GenericApp_Init().  Another way to go would be to fill
//  105 // in the structure here and make it a "const" (in code space).  The
//  106 // way it's defined in this sample app it is define in RAM.

        RSEG XDATA_Z:XDATA:NOROOT(0)
        DATA8
//  107 endPointDesc_t GenericApp_epDesc;
GenericApp_epDesc:
        DS 6
        REQUIRE __INIT_XDATA_Z
//  108 
//  109 
//  110 /*********************************************************************
//  111  * LOCAL VARIABLES
//  112  */

        RSEG XDATA_Z:XDATA:NOROOT(0)
        DATA8
//  113 byte GenericApp_TaskID;   // Task ID for internal task/event processing
GenericApp_TaskID:
        DS 1
        REQUIRE __INIT_XDATA_Z
//  114                           // This variable will be received when
//  115                           // GenericApp_Init() is called.

        RSEG XDATA_Z:XDATA:NOROOT(0)
        DATA8
//  116 devStates_t GenericApp_NwkState;  //节点连接状态
GenericApp_NwkState:
        DS 1
        REQUIRE __INIT_XDATA_Z
//  117 
//  118 

        RSEG XDATA_Z:XDATA:NOROOT(0)
        DATA8
//  119 byte GenericApp_TransID;  // This is the unique message ID (counter)
GenericApp_TransID:
        DS 1
        REQUIRE __INIT_XDATA_Z
//  120 
//  121 
//  122 /*********************************************************************
//  123  * LOCAL FUNCTIONS
//  124  */
//  125 void GenericApp_MessageMSGCB( afIncomingMSGPacket_t *pckt );
//  126 void GenericApp_SendTheMessage( void );
//  127 
//  128 
//  129 
//  130 /*********************************************************************
//  131  * @fn      GenericApp_Init
//  132  *
//  133  * @brief   Initialization function for the Generic App Task.
//  134  *          This is called during initialization and should contain
//  135  *          any application specific initialization (ie. hardware
//  136  *          initialization/setup, table initialization, power up
//  137  *          notificaiton ... ).
//  138  *
//  139  * @param   task_id - the ID assigned by OSAL.  This ID should be
//  140  *                    used to send messages and set timers.
//  141  *
//  142  * @return  none
//  143  */

        RSEG BANKED_CODE:CODE:NOROOT(0)
//  144 void GenericApp_Init( byte task_id )
GenericApp_Init:
        CFI Block cfiBlock0 Using cfiCommon0
        CFI Function GenericApp_Init
        CODE
//  145 {
        FUNCALL GenericApp_Init, afRegister
        LOCFRAME ISTACK, 0, STACK
        LOCFRAME PSTACK, 0, STACK
        LOCFRAME XSTACK, 9, STACK
        LOCFRAME IOVERLAY, 0, STATIC
        LOCFRAME DOVERLAY, 0, STATIC
        ARGFRAME ISTACK, 0, STACK
        ARGFRAME PSTACK, 0, STACK
        ARGFRAME XSTACK, 9, STACK
        ARGFRAME IOVERLAY, 0, STATIC
        ARGFRAME DOVERLAY, 0, STATIC
        MOV     A,#-0x9
        LCALL   ?BANKED_ENTER_XDATA
        CFI DPH0 load(1, XDATA, add(CFA_XSP16, literal(-1)))
        CFI DPL0 load(1, XDATA, add(CFA_XSP16, literal(-2)))
        CFI ?BRET_EXT load(1, XDATA, add(CFA_XSP16, literal(-3)))
        CFI ?RET_HIGH load(1, XDATA, add(CFA_XSP16, literal(-4)))
        CFI ?RET_LOW load(1, XDATA, add(CFA_XSP16, literal(-5)))
        CFI R7 load(1, XDATA, add(CFA_XSP16, literal(-6)))
        CFI V0 load(1, XDATA, add(CFA_XSP16, literal(-7)))
        CFI VB load(1, XDATA, add(CFA_XSP16, literal(-8)))
        CFI R6 load(1, XDATA, add(CFA_XSP16, literal(-9)))
        CFI CFA_SP SP+0
        CFI CFA_XSP16 add(XSP16, 9)
        ; Saved register size: 9
        ; Auto size: 0
        MOV     A,R1
//  146   GenericApp_TaskID = task_id;
        MOV     DPTR,#GenericApp_TaskID
        MOVX    @DPTR,A
//  147   GenericApp_NwkState = DEV_INIT;
        MOV     DPTR,#GenericApp_NwkState
        MOV     A,#0x1
        MOVX    @DPTR,A
//  148   GenericApp_TransID = 0;
        MOV     DPTR,#GenericApp_TransID
        CLR     A
        MOVX    @DPTR,A
//  149 
//  150   // Device hardware initialization can be added here or in main() (Zmain.c).
//  151   // If the hardware is application specific - add it here.
//  152   // If the hardware is other parts of the device add it in main().
//  153 
//  154   // Fill out the endpoint description.
//  155   GenericApp_epDesc.endPoint = GENERICAPP_ENDPOINT;
        MOV     DPTR,#GenericApp_epDesc
        MOV     A,#0xa
        MOVX    @DPTR,A
//  156   GenericApp_epDesc.task_id = &GenericApp_TaskID;
        INC     DPTR
        MOV     A,#GenericApp_TaskID & 0xff
        MOVX    @DPTR,A
        INC     DPTR
        MOV     A,#(GenericApp_TaskID >> 8) & 0xff
        MOVX    @DPTR,A
//  157   GenericApp_epDesc.simpleDesc
//  158             = (SimpleDescriptionFormat_t *)&GenericApp_SimpleDesc;
        INC     DPTR
        MOV     A,#GenericApp_SimpleDesc & 0xff
        MOVX    @DPTR,A
        INC     DPTR
        MOV     A,#(GenericApp_SimpleDesc >> 8) & 0xff
        MOVX    @DPTR,A
//  159   GenericApp_epDesc.latencyReq = noLatencyReqs;
        INC     DPTR
        CLR     A
        MOVX    @DPTR,A
//  160 
//  161   // Register the endpoint description with the AF
//  162   afRegister( &GenericApp_epDesc );
        ; Setup parameters for call to function afRegister
        MOV     R2,#GenericApp_epDesc & 0xff
        MOV     R3,#(GenericApp_epDesc >> 8) & 0xff
        LCALL   ??afRegister?relay
//  163 
//  164 }
        MOV     R7,#0x1
        LJMP    ?BANKED_LEAVE_XDATA
        CFI EndBlock cfiBlock0
//  165 
//  166 
//  167 
//  168 /*********************************************************************
//  169  * @fn      GenericApp_ProcessEvent
//  170  *
//  171  * @brief   Generic Application Task event processor.  This function
//  172  *          is called to process all events for the task.  Events
//  173  *          include timers, messages and any other user defined events.
//  174  *
//  175  * @param   task_id  - The OSAL assigned task ID.
//  176  * @param   events - events to process.  This is a bit map and can
//  177  *                   contain more than one event.
//  178  *
//  179  * @return  none
//  180  */

        RSEG BANKED_CODE:CODE:NOROOT(0)
//  181 UINT16 GenericApp_ProcessEvent( byte task_id, UINT16 events )
GenericApp_ProcessEvent:
        CFI Block cfiBlock1 Using cfiCommon0
        CFI Function GenericApp_ProcessEvent
        CODE
//  182 {
        FUNCALL GenericApp_ProcessEvent, osal_msg_receive
        LOCFRAME ISTACK, 0, STACK
        LOCFRAME PSTACK, 0, STACK
        LOCFRAME XSTACK, 12, STACK
        LOCFRAME IOVERLAY, 0, STATIC
        LOCFRAME DOVERLAY, 0, STATIC
        ARGFRAME ISTACK, 0, STACK
        ARGFRAME PSTACK, 0, STACK
        ARGFRAME XSTACK, 12, STACK
        ARGFRAME IOVERLAY, 0, STATIC
        ARGFRAME DOVERLAY, 0, STATIC
        FUNCALL GenericApp_ProcessEvent, osal_start_reload_timer
        LOCFRAME ISTACK, 0, STACK
        LOCFRAME PSTACK, 0, STACK
        LOCFRAME XSTACK, 12, STACK
        LOCFRAME IOVERLAY, 0, STATIC
        LOCFRAME DOVERLAY, 0, STATIC
        ARGFRAME ISTACK, 0, STACK
        ARGFRAME PSTACK, 0, STACK
        ARGFRAME XSTACK, 12, STACK
        ARGFRAME IOVERLAY, 0, STATIC
        ARGFRAME DOVERLAY, 0, STATIC
        FUNCALL GenericApp_ProcessEvent, osal_msg_deallocate
        LOCFRAME ISTACK, 0, STACK
        LOCFRAME PSTACK, 0, STACK
        LOCFRAME XSTACK, 12, STACK
        LOCFRAME IOVERLAY, 0, STATIC
        LOCFRAME DOVERLAY, 0, STATIC
        ARGFRAME ISTACK, 0, STACK
        ARGFRAME PSTACK, 0, STACK
        ARGFRAME XSTACK, 12, STACK
        ARGFRAME IOVERLAY, 0, STATIC
        ARGFRAME DOVERLAY, 0, STATIC
        FUNCALL GenericApp_ProcessEvent, osal_msg_receive
        LOCFRAME ISTACK, 0, STACK
        LOCFRAME PSTACK, 0, STACK
        LOCFRAME XSTACK, 12, STACK
        LOCFRAME IOVERLAY, 0, STATIC
        LOCFRAME DOVERLAY, 0, STATIC
        ARGFRAME ISTACK, 0, STACK
        ARGFRAME PSTACK, 0, STACK
        ARGFRAME XSTACK, 12, STACK
        ARGFRAME IOVERLAY, 0, STATIC
        ARGFRAME DOVERLAY, 0, STATIC
        FUNCALL GenericApp_ProcessEvent, GenericApp_SendTheMessage
        LOCFRAME ISTACK, 0, STACK
        LOCFRAME PSTACK, 0, STACK
        LOCFRAME XSTACK, 12, STACK
        LOCFRAME IOVERLAY, 0, STATIC
        LOCFRAME DOVERLAY, 0, STATIC
        ARGFRAME ISTACK, 0, STACK
        ARGFRAME PSTACK, 0, STACK
        ARGFRAME XSTACK, 12, STACK
        ARGFRAME IOVERLAY, 0, STATIC
        ARGFRAME DOVERLAY, 0, STATIC
        MOV     A,#-0xc
        LCALL   ?BANKED_ENTER_XDATA
        CFI DPH0 load(1, XDATA, add(CFA_XSP16, literal(-1)))
        CFI DPL0 load(1, XDATA, add(CFA_XSP16, literal(-2)))
        CFI ?BRET_EXT load(1, XDATA, add(CFA_XSP16, literal(-3)))
        CFI ?RET_HIGH load(1, XDATA, add(CFA_XSP16, literal(-4)))
        CFI ?RET_LOW load(1, XDATA, add(CFA_XSP16, literal(-5)))
        CFI R7 load(1, XDATA, add(CFA_XSP16, literal(-6)))
        CFI V3 load(1, XDATA, add(CFA_XSP16, literal(-7)))
        CFI V2 load(1, XDATA, add(CFA_XSP16, literal(-8)))
        CFI V1 load(1, XDATA, add(CFA_XSP16, literal(-9)))
        CFI V0 load(1, XDATA, add(CFA_XSP16, literal(-10)))
        CFI VB load(1, XDATA, add(CFA_XSP16, literal(-11)))
        CFI R6 load(1, XDATA, add(CFA_XSP16, literal(-12)))
        CFI CFA_SP SP+0
        CFI CFA_XSP16 add(XSP16, 12)
        ; Saved register size: 12
        ; Auto size: 0
        MOV     A,R2
        MOV     R6,A
        MOV     A,R3
        MOV     R7,A
//  183   afIncomingMSGPacket_t *MSGpkt;
//  184 
//  185   if ( events & SYS_EVENT_MSG )
        ANL     A,#0x80
        JZ      ??GenericApp_ProcessEvent_0
//  186   {
//  187     MSGpkt = (afIncomingMSGPacket_t *)osal_msg_receive( GenericApp_TaskID );
        ; Setup parameters for call to function osal_msg_receive
        SJMP    ??GenericApp_ProcessEvent_1
//  188     while ( MSGpkt )
//  189     {
//  190       switch ( MSGpkt->hdr.event )
??GenericApp_ProcessEvent_2:
        MOV     DPL,?V0 + 0
        MOV     DPH,?V0 + 1
        MOVX    A,@DPTR
        XRL     A,#0xd1
        JNZ     ??GenericApp_ProcessEvent_3
//  191       {
//  192         case ZDO_STATE_CHANGE:  //网络连接状态 ID
//  193           
//  194           GenericApp_NwkState = (devStates_t)(MSGpkt->hdr.status);
        INC     DPTR
        MOVX    A,@DPTR
        MOV     DPTR,#GenericApp_NwkState
        MOVX    @DPTR,A
//  195           
//  196           if ((GenericApp_NwkState == DEV_END_DEVICE) )  //已连接
        XRL     A,#0x6
        JNZ     ??GenericApp_ProcessEvent_3
//  197           {
//  198             
//  199             osal_start_reload_timer( GenericApp_TaskID, LED_EVENT, 1000 );
        ; Setup parameters for call to function osal_start_reload_timer
        MOV     R4,#-0x18
        MOV     R5,#0x3
        MOV     R2,#0x2
        MOV     R3,#0x0
        MOV     DPTR,#GenericApp_TaskID
        MOVX    A,@DPTR
        MOV     R1,A
        LCALL   ??osal_start_reload_timer?relay
//  200 
//  201           }
//  202           break;
//  203 
//  204         default:
//  205           break;
//  206       }
//  207 
//  208       // Release the memory
//  209       osal_msg_deallocate( (uint8 *)MSGpkt );
??GenericApp_ProcessEvent_3:
        ; Setup parameters for call to function osal_msg_deallocate
        MOV     R2,?V0 + 0
        MOV     R3,?V0 + 1
        LCALL   ??osal_msg_deallocate?relay
//  210 
//  211       // Next
//  212       MSGpkt = (afIncomingMSGPacket_t *)osal_msg_receive( GenericApp_TaskID );
        ; Setup parameters for call to function osal_msg_receive
??GenericApp_ProcessEvent_1:
        MOV     DPTR,#GenericApp_TaskID
        MOVX    A,@DPTR
        MOV     R1,A
        LCALL   ??osal_msg_receive?relay
        MOV     ?V0 + 0,R2
        MOV     ?V0 + 1,R3
//  213     }
        MOV     A,?V0 + 0
        ORL     A,?V0 + 1
        JNZ     ??GenericApp_ProcessEvent_2
//  214 
//  215     // return unprocessed events
//  216     return (events ^ SYS_EVENT_MSG);
        MOV     A,R6
        MOV     R2,A
        MOV     A,R7
        XRL     A,#0x80
??GenericApp_ProcessEvent_4:
        MOV     R3,A
        SJMP    ??GenericApp_ProcessEvent_5
//  217   }
//  218 
//  219   
//  220     if ( events & LED_EVENT )
??GenericApp_ProcessEvent_0:
        MOV     A,R6
        ANL     A,#0x2
        JZ      ??GenericApp_ProcessEvent_6
//  221   {
//  222     GenericApp_SendTheMessage();
        ; Setup parameters for call to function GenericApp_SendTheMessage
        LCALL   ??GenericApp_SendTheMessage?relay
//  223     
//  224     // return unprocessed events
//  225     return (events ^ LED_EVENT);
        MOV     A,R6
        XRL     A,#0x2
        MOV     R2,A
        MOV     A,R7
        SJMP    ??GenericApp_ProcessEvent_4
//  226   }
//  227   
//  228   // Discard unknown events
//  229   return 0;
??GenericApp_ProcessEvent_6:
        MOV     R2,#0x0
        MOV     R3,#0x0
??GenericApp_ProcessEvent_5:
        MOV     R7,#0x4
        LJMP    ?BANKED_LEAVE_XDATA
        CFI EndBlock cfiBlock1
//  230 }
//  231 
//  232 
//  233 
//  234 /*********************************************************************
//  235  * @fn      GenericApp_SendTheMessage
//  236  *
//  237  * @brief   Send "the" message.
//  238  *
//  239  * @param   none
//  240  *
//  241  * @return  none
//  242  */

        RSEG BANKED_CODE:CODE:NOROOT(0)
//  243 void GenericApp_SendTheMessage( void )
GenericApp_SendTheMessage:
        CFI Block cfiBlock2 Using cfiCommon0
        CFI Function GenericApp_SendTheMessage
        CODE
//  244 {
        FUNCALL GenericApp_SendTheMessage, osal_strlen
        LOCFRAME ISTACK, 0, STACK
        LOCFRAME PSTACK, 0, STACK
        LOCFRAME XSTACK, 31, STACK
        LOCFRAME IOVERLAY, 0, STATIC
        LOCFRAME DOVERLAY, 0, STATIC
        ARGFRAME ISTACK, 0, STACK
        ARGFRAME PSTACK, 0, STACK
        ARGFRAME XSTACK, 31, STACK
        ARGFRAME IOVERLAY, 0, STATIC
        ARGFRAME DOVERLAY, 0, STATIC
        FUNCALL GenericApp_SendTheMessage, AF_DataRequest
        LOCFRAME ISTACK, 0, STACK
        LOCFRAME PSTACK, 0, STACK
        LOCFRAME XSTACK, 35, STACK
        LOCFRAME IOVERLAY, 0, STATIC
        LOCFRAME DOVERLAY, 0, STATIC
        ARGFRAME ISTACK, 0, STACK
        ARGFRAME PSTACK, 0, STACK
        ARGFRAME XSTACK, 35, STACK
        ARGFRAME IOVERLAY, 0, STATIC
        ARGFRAME DOVERLAY, 0, STATIC
        MOV     A,#-0xa
        LCALL   ?BANKED_ENTER_XDATA
        CFI DPH0 load(1, XDATA, add(CFA_XSP16, literal(-1)))
        CFI DPL0 load(1, XDATA, add(CFA_XSP16, literal(-2)))
        CFI ?BRET_EXT load(1, XDATA, add(CFA_XSP16, literal(-3)))
        CFI ?RET_HIGH load(1, XDATA, add(CFA_XSP16, literal(-4)))
        CFI ?RET_LOW load(1, XDATA, add(CFA_XSP16, literal(-5)))
        CFI R7 load(1, XDATA, add(CFA_XSP16, literal(-6)))
        CFI V1 load(1, XDATA, add(CFA_XSP16, literal(-7)))
        CFI V0 load(1, XDATA, add(CFA_XSP16, literal(-8)))
        CFI VB load(1, XDATA, add(CFA_XSP16, literal(-9)))
        CFI R6 load(1, XDATA, add(CFA_XSP16, literal(-10)))
        CFI CFA_SP SP+0
        CFI CFA_XSP16 add(XSP16, 10)
        ; Saved register size: 10
        ; Auto size: 16
        MOV     A,#-0x10
        LCALL   ?ALLOC_XSTACK8
        CFI CFA_XSP16 add(XSP16, 26)
//  245   char theMessageData[] = "LED";
        MOV     DPL,?XSP + 0
        MOV     DPH,?XSP + 1
        MOV     R4,DPL
        MOV     R5,DPH
        MOV     DPH,#(`?<Constant "LED">` >> 8) & 0xff
        MOV     DPL,#`?<Constant "LED">` & 0xff
        MOV     A,#0x4
        LCALL   ?MOVE_LONG8_XDATA_XDATA
//  246   
//  247   afAddrType_t GenericApp_DstAddr;  //目标
//  248   
//  249   GenericApp_DstAddr.addrMode = (afAddrMode_t)Addr16Bit; //单播发送
        MOV     A,#0xc
        LCALL   ?XSTACK_DISP0_8
        MOV     A,#0x2
        MOVX    @DPTR,A
//  250   GenericApp_DstAddr.endPoint = GENERICAPP_ENDPOINT;
        MOV     A,#0xd
        LCALL   ?XSTACK_DISP0_8
        MOV     A,#0xa
        MOVX    @DPTR,A
//  251   GenericApp_DstAddr.addr.shortAddr = 0x0000;  //协调器的网络地址（定死的）
        MOV     A,#0x4
        LCALL   ?XSTACK_DISP0_8
        CLR     A
        MOVX    @DPTR,A
        INC     DPTR
        MOVX    @DPTR,A
//  252 
//  253   if ( AF_DataRequest( &GenericApp_DstAddr, &GenericApp_epDesc,
//  254                        GENERICAPP_CLUSTERID,
//  255                        (byte)osal_strlen( theMessageData ) + 1,
//  256                        (byte *)&theMessageData,
//  257                        &GenericApp_TransID,
//  258                        AF_DISCV_ROUTE, AF_DEFAULT_RADIUS ) == afStatus_SUCCESS )
        ; Setup parameters for call to function AF_DataRequest
        MOV     ?V0 + 0,#0x1e
        MOV     R0,#?V0 + 0
        LCALL   ?PUSH_XSTACK_I_ONE
        CFI CFA_XSP16 add(XSP16, 27)
        MOV     ?V0 + 0,#GenericApp_TransID & 0xff
        MOV     ?V0 + 1,#(GenericApp_TransID >> 8) & 0xff
        MOV     R0,#?V0 + 0
        LCALL   ?PUSH_XSTACK_I_TWO
        CFI CFA_XSP16 add(XSP16, 29)
        MOV     A,#0x3
        LCALL   ?XSTACK_DISP0_8
        MOV     ?V0 + 0,DPL
        MOV     ?V0 + 1,DPH
        MOV     R0,#?V0 + 0
        LCALL   ?PUSH_XSTACK_I_TWO
        CFI CFA_XSP16 add(XSP16, 31)
        ; Setup parameters for call to function osal_strlen
        MOV     A,#0x5
        LCALL   ?XSTACK_DISP0_8
        MOV     R2,DPL
        MOV     R3,DPH
        LCALL   ??osal_strlen?relay
        MOV     A,R2
        ADD     A,#0x1
        MOV     ?V0 + 0,A
        CLR     A
        ADDC    A,#0x0
        MOV     ?V0 + 1,A
        MOV     R0,#?V0 + 0
        LCALL   ?PUSH_XSTACK_I_TWO
        CFI CFA_XSP16 add(XSP16, 33)
        MOV     ?V0 + 0,#0x1
        MOV     ?V0 + 1,#0x0
        MOV     R0,#?V0 + 0
        LCALL   ?PUSH_XSTACK_I_TWO
        CFI CFA_XSP16 add(XSP16, 35)
        MOV     R1,#0x20
        MOV     R4,#GenericApp_epDesc & 0xff
        MOV     R5,#(GenericApp_epDesc >> 8) & 0xff
        MOV     A,#0xd
        LCALL   ?XSTACK_DISP0_8
        MOV     R2,DPL
        MOV     R3,DPH
        LCALL   ??AF_DataRequest?relay
        MOV     A,#0x9
        LCALL   ?DEALLOC_XSTACK8
        CFI CFA_XSP16 add(XSP16, 26)
//  259   {
//  260     // Successfully requested to be sent.
//  261     
//  262     
//  263   }
//  264   else
//  265   {
//  266     // Error occurred in request to send.
//  267   }
//  268 }
        MOV     A,#0x10
        LCALL   ?DEALLOC_XSTACK8
        CFI CFA_XSP16 add(XSP16, 10)
        MOV     R7,#0x2
        LJMP    ?BANKED_LEAVE_XDATA
        CFI EndBlock cfiBlock2

        RSEG BANK_RELAYS:CODE:REORDER:NOROOT(0)
??GenericApp_Init?relay:
        LCALL   ?BDISPATCH
        DATA
        DC24    GenericApp_Init

        RSEG BANK_RELAYS:CODE:REORDER:NOROOT(0)
??GenericApp_ProcessEvent?relay:
        LCALL   ?BDISPATCH
        DATA
        DC24    GenericApp_ProcessEvent

        RSEG BANK_RELAYS:CODE:REORDER:NOROOT(0)
??GenericApp_SendTheMessage?relay:
        LCALL   ?BDISPATCH
        DATA
        DC24    GenericApp_SendTheMessage

        RSEG XDATA_ROM_C:CONST:REORDER:NOROOT(0)
        DATA32
`?<Constant "LED">`:
        DB "LED"

        END
//  269 
// 
// 329 bytes in segment BANKED_CODE
//  18 bytes in segment BANK_RELAYS
//  18 bytes in segment XDATA_ROM_C
//   9 bytes in segment XDATA_Z
// 
// 347 bytes of CODE  memory
//  18 bytes of CONST memory
//   9 bytes of XDATA memory
//
//Errors: none
//Warnings: none
