///////////////////////////////////////////////////////////////////////////////
//                                                                            /
// IAR C/C++ Compiler V8.10.1.10194/W32 for 8051        17/May/2016  09:37:09 /
// Copyright 2004-2011 IAR Systems AB.                                        /
//                                                                            /
//    Core               =  plain                                             /
//    Code model         =  banked                                            /
//    Data model         =  large                                             /
//    Calling convention =  xdata reentrant                                   /
//    Constant location  =  data_rom                                          /
//    Dptr setup         =  1,16                                              /
//    Source file        =  C:\Users\Administrator\Desktop\ZStack-CC2530-2.3. /
//                          0-1.4.0_sl（LED和透传）\ZStack-CC2530-2.3.0-1.4.0 /
//                          _sl\Projects\zstack\Samples\SerialApp\Source\Coor /
//                          dinator.c                                         /
//    Command line       =  -f C:\Users\Administrator\Desktop\ZStack-CC2530-2 /
//                          .3.0-1.4.0_sl（LED和透传）\ZStack-CC2530-2.3.0-1. /
//                          4.0_sl\Projects\zstack\Samples\SerialApp\CC2530DB /
//                          \..\..\..\Tools\CC2530DB\f8wCoord.cfg             /
//                          (-DCPU32MHZ -DROOT=__near_func                    /
//                          -DMAC_CFG_APP_PENDING_QUEUE=TRUE                  /
//                          -DZDO_COORDINATOR -DRTR_NWK -DBLINK_LEDS) -f      /
//                          C:\Users\Administrator\Desktop\ZStack-CC2530-2.3. /
//                          0-1.4.0_sl（LED和透传）\ZStack-CC2530-2.3.0-1.4.0 /
//                          _sl\Projects\zstack\Samples\SerialApp\CC2530DB\.. /
//                          \..\..\Tools\CC2530DB\f8wConfig.cfg (-DSECURE=0   /
//                          -DZG_SECURE_DYNAMIC=0 -DREFLECTOR                 /
//                          -DDEFAULT_CHANLIST=0x00000800                     /
//                          -DZDAPP_CONFIG_PAN_ID=0x1230                      /
//                          -DNWK_START_DELAY=100 -DEXTENDED_JOINING_RANDOM_M /
//                          ASK=0x007F -DBEACON_REQUEST_DELAY=100             /
//                          -DBEACON_REQ_DELAY_MASK=0x00FF                    /
//                          -DROUTE_EXPIRY_TIME=30 -DAPSC_ACK_WAIT_DURATION_P /
//                          OLLED=3000 -DNWK_INDIRECT_MSG_TIMEOUT=7           /
//                          -DMAX_RREQ_ENTRIES=8 -DAPSC_MAX_FRAME_RETRIES=3   /
//                          -DNWK_MAX_DATA_RETRIES=2                          /
//                          -DMAX_POLL_FAILURE_RETRIES=2 -DMAX_BCAST=9        /
//                          -DAPS_MAX_GROUPS=16 -DMAX_RTG_ENTRIES=40          /
//                          -DNWK_MAX_BINDING_ENTRIES=4                       /
//                          -DMAX_BINDING_CLUSTER_IDS=4                       /
//                          "-DDEFAULT_KEY={0x01, 0x03, 0x05, 0x07, 0x09,     /
//                          0x0B, 0x0D, 0x0F, 0x00, 0x02, 0x04, 0x06, 0x08,   /
//                          0x0A, 0x0C, 0x0D}" -DMAC_MAX_FRAME_SIZE=116       /
//                          "-DCONST=const __code" -DGENERIC=__generic        /
//                          -DRFD_RCVC_ALWAYS_ON=FALSE -DPOLL_RATE=1000       /
//                          -DQUEUED_POLL_RATE=100 -DRESPONSE_POLL_RATE=100)  /
//                          -DREJOIN_POLL_RATE=440 C:\Users\Administrator\Des /
//                          ktop\ZStack-CC2530-2.3.0-1.4.0_sl（LED和透传）\ZS /
//                          tack-CC2530-2.3.0-1.4.0_sl\Projects\zstack\Sample /
//                          s\SerialApp\Source\Coordinator.c -D ZTOOL_P1 -D   /
//                          MT_TASK -D MT_SYS_FUNC -D MT_ZDO_FUNC -D          /
//                          LCD_SUPPORTED=DEBUG -D HAL_UART_DMA -D            /
//                          GENERIC_SERIALAPP -lC C:\Users\Administrator\Desk /
//                          top\ZStack-CC2530-2.3.0-1.4.0_sl（LED和透传）\ZSt /
//                          ack-CC2530-2.3.0-1.4.0_sl\Projects\zstack\Samples /
//                          \SerialApp\CC2530DB\CoordinatorEB\List\ -lA       /
//                          C:\Users\Administrator\Desktop\ZStack-CC2530-2.3. /
//                          0-1.4.0_sl（LED和透传）\ZStack-CC2530-2.3.0-1.4.0 /
//                          _sl\Projects\zstack\Samples\SerialApp\CC2530DB\Co /
//                          ordinatorEB\List\ --diag_suppress Pe001,Pa010 -o  /
//                          C:\Users\Administrator\Desktop\ZStack-CC2530-2.3. /
//                          0-1.4.0_sl（LED和透传）\ZStack-CC2530-2.3.0-1.4.0 /
//                          _sl\Projects\zstack\Samples\SerialApp\CC2530DB\Co /
//                          ordinatorEB\Obj\ -e --debug --core=plain          /
//                          --dptr=16,1 --data_model=large                    /
//                          --code_model=banked --calling_convention=xdata_re /
//                          entrant --place_constants=data_rom                /
//                          --nr_virtual_regs 16 -I                           /
//                          C:\Users\Administrator\Desktop\ZStack-CC2530-2.3. /
//                          0-1.4.0_sl（LED和透传）\ZStack-CC2530-2.3.0-1.4.0 /
//                          _sl\Projects\zstack\Samples\SerialApp\CC2530DB\   /
//                          -I C:\Users\Administrator\Desktop\ZStack-CC2530-2 /
//                          .3.0-1.4.0_sl（LED和透传）\ZStack-CC2530-2.3.0-1. /
//                          4.0_sl\Projects\zstack\Samples\SerialApp\CC2530DB /
//                          \..\SOURCE\ -I C:\Users\Administrator\Desktop\ZSt /
//                          ack-CC2530-2.3.0-1.4.0_sl（LED和透传）\ZStack-CC2 /
//                          530-2.3.0-1.4.0_sl\Projects\zstack\Samples\Serial /
//                          App\CC2530DB\..\..\..\ZMAIN\TI2530DB\ -I          /
//                          C:\Users\Administrator\Desktop\ZStack-CC2530-2.3. /
//                          0-1.4.0_sl（LED和透传）\ZStack-CC2530-2.3.0-1.4.0 /
//                          _sl\Projects\zstack\Samples\SerialApp\CC2530DB\.. /
//                          \..\..\..\..\COMPONENTS\MT\ -I                    /
//                          C:\Users\Administrator\Desktop\ZStack-CC2530-2.3. /
//                          0-1.4.0_sl（LED和透传）\ZStack-CC2530-2.3.0-1.4.0 /
//                          _sl\Projects\zstack\Samples\SerialApp\CC2530DB\.. /
//                          \..\..\..\..\COMPONENTS\HAL\INCLUDE\ -I           /
//                          C:\Users\Administrator\Desktop\ZStack-CC2530-2.3. /
//                          0-1.4.0_sl（LED和透传）\ZStack-CC2530-2.3.0-1.4.0 /
//                          _sl\Projects\zstack\Samples\SerialApp\CC2530DB\.. /
//                          \..\..\..\..\COMPONENTS\HAL\TARGET\CC2530EB\ -I   /
//                          C:\Users\Administrator\Desktop\ZStack-CC2530-2.3. /
//                          0-1.4.0_sl（LED和透传）\ZStack-CC2530-2.3.0-1.4.0 /
//                          _sl\Projects\zstack\Samples\SerialApp\CC2530DB\.. /
//                          \..\..\..\..\COMPONENTS\OSAL\MCU\CCSOC\ -I        /
//                          C:\Users\Administrator\Desktop\ZStack-CC2530-2.3. /
//                          0-1.4.0_sl（LED和透传）\ZStack-CC2530-2.3.0-1.4.0 /
//                          _sl\Projects\zstack\Samples\SerialApp\CC2530DB\.. /
//                          \..\..\..\..\COMPONENTS\OSAL\INCLUDE\ -I          /
//                          C:\Users\Administrator\Desktop\ZStack-CC2530-2.3. /
//                          0-1.4.0_sl（LED和透传）\ZStack-CC2530-2.3.0-1.4.0 /
//                          _sl\Projects\zstack\Samples\SerialApp\CC2530DB\.. /
//                          \..\..\..\..\COMPONENTS\STACK\AF\ -I              /
//                          C:\Users\Administrator\Desktop\ZStack-CC2530-2.3. /
//                          0-1.4.0_sl（LED和透传）\ZStack-CC2530-2.3.0-1.4.0 /
//                          _sl\Projects\zstack\Samples\SerialApp\CC2530DB\.. /
//                          \..\..\..\..\COMPONENTS\STACK\NWK\ -I             /
//                          C:\Users\Administrator\Desktop\ZStack-CC2530-2.3. /
//                          0-1.4.0_sl（LED和透传）\ZStack-CC2530-2.3.0-1.4.0 /
//                          _sl\Projects\zstack\Samples\SerialApp\CC2530DB\.. /
//                          \..\..\..\..\COMPONENTS\STACK\SEC\ -I             /
//                          C:\Users\Administrator\Desktop\ZStack-CC2530-2.3. /
//                          0-1.4.0_sl（LED和透传）\ZStack-CC2530-2.3.0-1.4.0 /
//                          _sl\Projects\zstack\Samples\SerialApp\CC2530DB\.. /
//                          \..\..\..\..\COMPONENTS\STACK\SAPI\ -I            /
//                          C:\Users\Administrator\Desktop\ZStack-CC2530-2.3. /
//                          0-1.4.0_sl（LED和透传）\ZStack-CC2530-2.3.0-1.4.0 /
//                          _sl\Projects\zstack\Samples\SerialApp\CC2530DB\.. /
//                          \..\..\..\..\COMPONENTS\STACK\SYS\ -I             /
//                          C:\Users\Administrator\Desktop\ZStack-CC2530-2.3. /
//                          0-1.4.0_sl（LED和透传）\ZStack-CC2530-2.3.0-1.4.0 /
//                          _sl\Projects\zstack\Samples\SerialApp\CC2530DB\.. /
//                          \..\..\..\..\COMPONENTS\STACK\ZDO\ -I             /
//                          C:\Users\Administrator\Desktop\ZStack-CC2530-2.3. /
//                          0-1.4.0_sl（LED和透传）\ZStack-CC2530-2.3.0-1.4.0 /
//                          _sl\Projects\zstack\Samples\SerialApp\CC2530DB\.. /
//                          \..\..\..\..\COMPONENTS\ZMAC\F8W\ -I              /
//                          C:\Users\Administrator\Desktop\ZStack-CC2530-2.3. /
//                          0-1.4.0_sl（LED和透传）\ZStack-CC2530-2.3.0-1.4.0 /
//                          _sl\Projects\zstack\Samples\SerialApp\CC2530DB\.. /
//                          \..\..\..\..\COMPONENTS\ZMAC\ -I                  /
//                          C:\Users\Administrator\Desktop\ZStack-CC2530-2.3. /
//                          0-1.4.0_sl（LED和透传）\ZStack-CC2530-2.3.0-1.4.0 /
//                          _sl\Projects\zstack\Samples\SerialApp\CC2530DB\.. /
//                          \..\..\..\..\COMPONENTS\SERVICES\SADDR\ -I        /
//                          C:\Users\Administrator\Desktop\ZStack-CC2530-2.3. /
//                          0-1.4.0_sl（LED和透传）\ZStack-CC2530-2.3.0-1.4.0 /
//                          _sl\Projects\zstack\Samples\SerialApp\CC2530DB\.. /
//                          \..\..\..\..\COMPONENTS\SERVICES\SDATA\ -I        /
//                          C:\Users\Administrator\Desktop\ZStack-CC2530-2.3. /
//                          0-1.4.0_sl（LED和透传）\ZStack-CC2530-2.3.0-1.4.0 /
//                          _sl\Projects\zstack\Samples\SerialApp\CC2530DB\.. /
//                          \..\..\..\..\COMPONENTS\MAC\INCLUDE\ -I           /
//                          C:\Users\Administrator\Desktop\ZStack-CC2530-2.3. /
//                          0-1.4.0_sl（LED和透传）\ZStack-CC2530-2.3.0-1.4.0 /
//                          _sl\Projects\zstack\Samples\SerialApp\CC2530DB\.. /
//                          \..\..\..\..\COMPONENTS\MAC\HIGH_LEVEL\ -I        /
//                          C:\Users\Administrator\Desktop\ZStack-CC2530-2.3. /
//                          0-1.4.0_sl（LED和透传）\ZStack-CC2530-2.3.0-1.4.0 /
//                          _sl\Projects\zstack\Samples\SerialApp\CC2530DB\.. /
//                          \..\..\..\..\COMPONENTS\MAC\LOW_LEVEL\srf04\ -I   /
//                          C:\Users\Administrator\Desktop\ZStack-CC2530-2.3. /
//                          0-1.4.0_sl（LED和透传）\ZStack-CC2530-2.3.0-1.4.0 /
//                          _sl\Projects\zstack\Samples\SerialApp\CC2530DB\.. /
//                          \..\..\..\..\COMPONENTS\MAC\LOW_LEVEL\srf04\SINGL /
//                          E_CHIP\ -Ohz --require_prototypes                 /
//    List file          =  C:\Users\Administrator\Desktop\ZStack-CC2530-2.3. /
//                          0-1.4.0_sl（LED和透传）\ZStack-CC2530-2.3.0-1.4.0 /
//                          _sl\Projects\zstack\Samples\SerialApp\CC2530DB\Co /
//                          ordinatorEB\List\Coordinator.s51                  /
//                                                                            /
//                                                                            /
///////////////////////////////////////////////////////////////////////////////

        NAME Coordinator

        RTMODEL "__SystemLibrary", "CLib"
        RTMODEL "__calling_convention", "xdata_reentrant"
        RTMODEL "__code_model", "banked"
        RTMODEL "__core", "plain"
        RTMODEL "__data_model", "large"
        RTMODEL "__dptr_size", "16"
        RTMODEL "__extended_stack", "disabled"
        RTMODEL "__location_for_constants", "data"
        RTMODEL "__number_of_dptrs", "1"
        RTMODEL "__rt_version", "1"

        RSEG DOVERLAY:DATA:NOROOT(0)
        RSEG IOVERLAY:IDATA:NOROOT(0)
        RSEG ISTACK:IDATA:NOROOT(0)
        RSEG PSTACK:XDATA:NOROOT(0)
        RSEG XSTACK:XDATA:NOROOT(0)

        EXTERN ?ALLOC_XSTACK8
        EXTERN ?BANKED_ENTER_XDATA
        EXTERN ?BANKED_LEAVE_XDATA
        EXTERN ?BDISPATCH
        EXTERN ?BRET
        EXTERN ?DEALLOC_XSTACK8
        EXTERN ?PUSH_XSTACK_I_ONE
        EXTERN ?PUSH_XSTACK_I_TWO
        EXTERN ?V0
        EXTERN ?XSP
        EXTERN ?XSTACK_DISP0_8
        EXTERN __INIT_XDATA_Z

        PUBLIC ??GenericApp_Init?relay
        FUNCTION ??GenericApp_Init?relay,0203H
        PUBLIC ??GenericApp_MessageMSGCB?relay
        FUNCTION ??GenericApp_MessageMSGCB?relay,0203H
        PUBLIC ??GenericApp_ProcessEvent?relay
        FUNCTION ??GenericApp_ProcessEvent?relay,0203H
        PUBLIC ??SampleApp_SendMessage?relay
        FUNCTION ??SampleApp_SendMessage?relay,0203H
        PUBLIC GenericApp_ClusterList
        PUBLIC GenericApp_Init
        FUNCTION GenericApp_Init,021203H
        ARGFRAME XSTACK, 0, STACK
        LOCFRAME XSTACK, 9, STACK
        PUBLIC GenericApp_MessageMSGCB
        FUNCTION GenericApp_MessageMSGCB,021203H
        ARGFRAME XSTACK, 12, STACK
        ARGFRAME IOVERLAY, 0, STATIC
        ARGFRAME DOVERLAY, 0, STATIC
        LOCFRAME ISTACK, 2, STACK
        PUBLIC GenericApp_ProcessEvent
        FUNCTION GenericApp_ProcessEvent,021203H
        ARGFRAME XSTACK, 0, STACK
        LOCFRAME XSTACK, 12, STACK
        PUBLIC GenericApp_SimpleDesc
        PUBLIC GenericApp_TaskID
        PUBLIC GenericApp_TransID
        PUBLIC GenericApp_epDesc
        PUBLIC LEDFlag
        PUBLIC SampleApp_SendMessage
        FUNCTION SampleApp_SendMessage,021203H
        ARGFRAME XSTACK, 0, STACK
        LOCFRAME XSTACK, 31, STACK
        
        CFI Names cfiNames0
        CFI StackFrame CFA_SP SP IDATA
        CFI StackFrame CFA_PSP16 PSP16 XDATA
        CFI StackFrame CFA_XSP16 XSP16 XDATA
        CFI StaticOverlayFrame CFA_IOVERLAY IOVERLAY
        CFI StaticOverlayFrame CFA_DOVERLAY DOVERLAY
        CFI Resource `PSW.CY`:1, `B.BR0`:1, `B.BR1`:1, `B.BR2`:1, `B.BR3`:1
        CFI Resource `B.BR4`:1, `B.BR5`:1, `B.BR6`:1, `B.BR7`:1, `VB.BR8`:1
        CFI Resource `VB.BR9`:1, `VB.BR10`:1, `VB.BR11`:1, `VB.BR12`:1
        CFI Resource `VB.BR13`:1, `VB.BR14`:1, `VB.BR15`:1, VB:8, B:8, A:8
        CFI Resource PSW:8, DPL0:8, DPH0:8, R0:8, R1:8, R2:8, R3:8, R4:8, R5:8
        CFI Resource R6:8, R7:8, V0:8, V1:8, V2:8, V3:8, V4:8, V5:8, V6:8, V7:8
        CFI Resource V8:8, V9:8, V10:8, V11:8, V12:8, V13:8, V14:8, V15:8, SP:8
        CFI Resource PSPH:8, PSPL:8, PSP16:16, XSPH:8, XSPL:8, XSP16:16
        CFI VirtualResource ?RET:24
        CFI Resource ?BRET_EXT:8
        CFI VirtualResource ?RET_HIGH:8, ?RET_LOW:8
        CFI ResourceParts PSP16 PSPH, PSPL
        CFI ResourceParts XSP16 XSPH, XSPL
        CFI ResourceParts ?RET ?BRET_EXT, ?RET_HIGH, ?RET_LOW
        CFI EndNames cfiNames0
        
        CFI Common cfiCommon0 Using cfiNames0
        CFI CodeAlign 1
        CFI DataAlign -1
        CFI ReturnAddress ?RET CODE
        CFI CFA_DOVERLAY Used
        CFI CFA_IOVERLAY Used
        CFI CFA_SP SP+-3
        CFI CFA_PSP16 PSP16+0
        CFI CFA_XSP16 XSP16+0
        CFI `PSW.CY` SameValue
        CFI `B.BR0` SameValue
        CFI `B.BR1` SameValue
        CFI `B.BR2` SameValue
        CFI `B.BR3` SameValue
        CFI `B.BR4` SameValue
        CFI `B.BR5` SameValue
        CFI `B.BR6` SameValue
        CFI `B.BR7` SameValue
        CFI `VB.BR8` SameValue
        CFI `VB.BR9` SameValue
        CFI `VB.BR10` SameValue
        CFI `VB.BR11` SameValue
        CFI `VB.BR12` SameValue
        CFI `VB.BR13` SameValue
        CFI `VB.BR14` SameValue
        CFI `VB.BR15` SameValue
        CFI VB SameValue
        CFI B Undefined
        CFI A Undefined
        CFI PSW SameValue
        CFI DPL0 SameValue
        CFI DPH0 SameValue
        CFI R0 Undefined
        CFI R1 Undefined
        CFI R2 Undefined
        CFI R3 Undefined
        CFI R4 Undefined
        CFI R5 Undefined
        CFI R6 SameValue
        CFI R7 SameValue
        CFI V0 SameValue
        CFI V1 SameValue
        CFI V2 SameValue
        CFI V3 SameValue
        CFI V4 SameValue
        CFI V5 SameValue
        CFI V6 SameValue
        CFI V7 SameValue
        CFI V8 SameValue
        CFI V9 SameValue
        CFI V10 SameValue
        CFI V11 SameValue
        CFI V12 SameValue
        CFI V13 SameValue
        CFI V14 SameValue
        CFI V15 SameValue
        CFI PSPH Undefined
        CFI PSPL Undefined
        CFI XSPH Undefined
        CFI XSPL Undefined
        CFI ?RET Concat
        CFI ?BRET_EXT Frame(CFA_SP, 3)
        CFI ?RET_HIGH Frame(CFA_SP, 2)
        CFI ?RET_LOW Frame(CFA_SP, 1)
        CFI EndCommon cfiCommon0
        
HalUARTWrite        SYMBOL "HalUARTWrite"
afRegister          SYMBOL "afRegister"
osal_msg_receive    SYMBOL "osal_msg_receive"
osal_msg_deallocate SYMBOL "osal_msg_deallocate"
AF_DataRequest      SYMBOL "AF_DataRequest"
??AF_DataRequest?relay SYMBOL "?relay", AF_DataRequest
??HalUARTWrite?relay SYMBOL "?relay", HalUARTWrite
??afRegister?relay  SYMBOL "?relay", afRegister
??osal_msg_deallocate?relay SYMBOL "?relay", osal_msg_deallocate
??osal_msg_receive?relay SYMBOL "?relay", osal_msg_receive
GenericApp_Init     SYMBOL "GenericApp_Init"
??GenericApp_Init?relay SYMBOL "?relay", GenericApp_Init
GenericApp_MessageMSGCB SYMBOL "GenericApp_MessageMSGCB"
??GenericApp_MessageMSGCB?relay SYMBOL "?relay", GenericApp_MessageMSGCB
GenericApp_ProcessEvent SYMBOL "GenericApp_ProcessEvent"
??GenericApp_ProcessEvent?relay SYMBOL "?relay", GenericApp_ProcessEvent
SampleApp_SendMessage SYMBOL "SampleApp_SendMessage"
??SampleApp_SendMessage?relay SYMBOL "?relay", SampleApp_SendMessage

        EXTERN HalUARTWrite
        FUNCTION HalUARTWrite,0202H
        ARGFRAME ISTACK, 2, STACK
        ARGFRAME PSTACK, 0, STACK
        ARGFRAME XSTACK, 9, STACK
        ARGFRAME IOVERLAY, 0, STATIC
        ARGFRAME DOVERLAY, 0, STATIC
        EXTERN afRegister
        FUNCTION afRegister,0202H
        ARGFRAME ISTACK, 0, STACK
        ARGFRAME PSTACK, 0, STACK
        ARGFRAME XSTACK, 9, STACK
        ARGFRAME IOVERLAY, 0, STATIC
        ARGFRAME DOVERLAY, 0, STATIC
        EXTERN osal_msg_receive
        FUNCTION osal_msg_receive,0202H
        ARGFRAME ISTACK, 0, STACK
        ARGFRAME PSTACK, 0, STACK
        ARGFRAME XSTACK, 12, STACK
        ARGFRAME IOVERLAY, 0, STATIC
        ARGFRAME DOVERLAY, 0, STATIC
        EXTERN osal_msg_deallocate
        FUNCTION osal_msg_deallocate,0202H
        ARGFRAME ISTACK, 0, STACK
        ARGFRAME PSTACK, 0, STACK
        ARGFRAME XSTACK, 12, STACK
        ARGFRAME IOVERLAY, 0, STATIC
        ARGFRAME DOVERLAY, 0, STATIC
        EXTERN AF_DataRequest
        FUNCTION AF_DataRequest,0202H
        ARGFRAME ISTACK, 0, STACK
        ARGFRAME PSTACK, 0, STACK
        ARGFRAME XSTACK, 31, STACK
        ARGFRAME IOVERLAY, 0, STATIC
        ARGFRAME DOVERLAY, 0, STATIC
        EXTERN ??AF_DataRequest?relay
        FUNCTION ??AF_DataRequest?relay,00H
        EXTERN ??HalUARTWrite?relay
        FUNCTION ??HalUARTWrite?relay,00H
        EXTERN ??afRegister?relay
        FUNCTION ??afRegister?relay,00H
        EXTERN ??osal_msg_deallocate?relay
        FUNCTION ??osal_msg_deallocate?relay,00H
        EXTERN ??osal_msg_receive?relay
        FUNCTION ??osal_msg_receive?relay,00H

// C:\Users\Administrator\Desktop\ZStack-CC2530-2.3.0-1.4.0_sl（LED和透传）\ZStack-CC2530-2.3.0-1.4.0_sl\Projects\zstack\Samples\SerialApp\Source\Coordinator.c
//    1 /**************************************************************************************************
//    2   Filename:       Coordinator.c
//    3   Revised:        $Date: 2009-03-18 15:56:27 -0700 (Wed, 18 Mar 2009) $
//    4   Revision:       $Revision: 19453 $
//    5 
//    6   Description:    Generic Application (no Profile).
//    7 
//    8 
//    9   Copyright 2004-2009 Texas Instruments Incorporated. All rights reserved.
//   10 
//   11   IMPORTANT: Your use of this Software is limited to those specific rights
//   12   granted under the terms of a software license agreement between the user
//   13   who downloaded the software, his/her employer (which must be your employer)
//   14   and Texas Instruments Incorporated (the "License").  You may not use this
//   15   Software unless you agree to abide by the terms of the License. The License
//   16   limits your use, and you acknowledge, that the Software may not be modified,
//   17   copied or distributed unless embedded on a Texas Instruments microcontroller
//   18   or used solely and exclusively in conjunction with a Texas Instruments radio
//   19   frequency transceiver, which is integrated into your product.  Other than for
//   20   the foregoing purpose, you may not use, reproduce, copy, prepare derivative
//   21   works of, modify, distribute, perform, display or sell this Software and/or
//   22   its documentation for any purpose.
//   23 
//   24   YOU FURTHER ACKNOWLEDGE AND AGREE THAT THE SOFTWARE AND DOCUMENTATION ARE
//   25   PROVIDED AS IS?WITHOUT WARRANTY OF ANY KIND, EITHER EXPRESS OR IMPLIED, 
//   26   INCLUDING WITHOUT LIMITATION, ANY WARRANTY OF MERCHANTABILITY, TITLE, 
//   27   NON-INFRINGEMENT AND FITNESS FOR A PARTICULAR PURPOSE. IN NO EVENT SHALL
//   28   TEXAS INSTRUMENTS OR ITS LICENSORS BE LIABLE OR OBLIGATED UNDER CONTRACT,
//   29   NEGLIGENCE, STRICT LIABILITY, CONTRIBUTION, BREACH OF WARRANTY, OR OTHER
//   30   LEGAL EQUITABLE THEORY ANY DIRECT OR INDIRECT DAMAGES OR EXPENSES
//   31   INCLUDING BUT NOT LIMITED TO ANY INCIDENTAL, SPECIAL, INDIRECT, PUNITIVE
//   32   OR CONSEQUENTIAL DAMAGES, LOST PROFITS OR LOST DATA, COST OF PROCUREMENT
//   33   OF SUBSTITUTE GOODS, TECHNOLOGY, SERVICES, OR ANY CLAIMS BY THIRD PARTIES
//   34   (INCLUDING BUT NOT LIMITED TO ANY DEFENSE THEREOF), OR OTHER SIMILAR COSTS.
//   35 
//   36   Should you have any questions regarding your right to use this Software,
//   37   contact Texas Instruments Incorporated at www.TI.com. 
//   38 **************************************************************************************************/
//   39 
//   40 /*********************************************************************
//   41   This application isn't intended to do anything useful, it is
//   42   intended to be a simple example of an application's structure.
//   43 
//   44   This application sends "Hello World" to another "Generic"
//   45   application every 15 seconds.  The application will also
//   46   receive "Hello World" packets.
//   47 
//   48   The "Hello World" messages are sent/received as MSG type message.
//   49 
//   50   This applications doesn't have a profile, so it handles everything
//   51   directly - itself.
//   52 
//   53   Key control:
//   54     SW1:
//   55     SW2:  initiates end device binding
//   56     SW3:
//   57     SW4:  initiates a match description request
//   58 *********************************************************************/
//   59 
//   60 /*********************************************************************
//   61  * INCLUDES
//   62  */
//   63 #include "OSAL.h"
//   64 #include "AF.h"
//   65 #include "ZDApp.h"
//   66 #include "ZDObject.h"
//   67 #include "ZDProfile.h"
//   68 
//   69 #include "Coordinator.h"
//   70 #include "DebugTrace.h"
//   71 
//   72 #if !defined( WIN32 )
//   73   #include "OnBoard.h"
//   74 #endif
//   75 
//   76 /* HAL */
//   77 #include "hal_lcd.h"
//   78 #include "hal_led.h"
//   79 #include "hal_key.h"
//   80 #include "hal_uart.h"
//   81 
//   82 #include "mt_uart.h"
//   83 
//   84 /*********************************************************************
//   85  * MACROS
//   86  */
//   87 
//   88 /*********************************************************************
//   89  * CONSTANTS
//   90  */
//   91 
//   92 /*********************************************************************
//   93  * TYPEDEFS
//   94  */
//   95 
//   96 /*********************************************************************
//   97  * GLOBAL VARIABLES
//   98  */
//   99 
//  100 // This list should be filled with Application specific Cluster IDs.

        RSEG XDATA_ROM_C:CONST:REORDER:NOROOT(0)
        DATA16
//  101 const cId_t GenericApp_ClusterList[GENERICAPP_MAX_CLUSTERS] =
GenericApp_ClusterList:
        DW 1
//  102 {
//  103   GENERICAPP_CLUSTERID
//  104 };
//  105 
//  106 
//  107 //本结构体描述一个设备节点属性

        RSEG XDATA_ROM_C:CONST:REORDER:NOROOT(0)
        DATA8
//  108 const SimpleDescriptionFormat_t GenericApp_SimpleDesc =   
GenericApp_SimpleDesc:
        DB 10
        DATA16
        DW 3844
        DW 1
        DATA8
        DB 0
        DB 1
        DATA16
        DW GenericApp_ClusterList
        DATA8
        DB 0
        DATA16
        DW 0H
//  109 {
//  110   GENERICAPP_ENDPOINT,              //  int Endpoint;
//  111   GENERICAPP_PROFID,                //  uint16 AppProfId[2];
//  112   GENERICAPP_DEVICEID,              //  uint16 AppDeviceId[2];
//  113   GENERICAPP_DEVICE_VERSION,        //  int   AppDevVer:4;
//  114   GENERICAPP_FLAGS,                 //  int   AppFlags:4;
//  115   GENERICAPP_MAX_CLUSTERS,          //  byte  AppNumInClusters;
//  116   (cId_t *)GenericApp_ClusterList,  //  byte *pAppInClusterList;
//  117   0,          //  byte  AppNumInClusters;
//  118   (cId_t *)NULL   //  byte *pAppInClusterList;
//  119 };
//  120 
//  121 // This is the Endpoint/Interface description.  It is defined here, but
//  122 // filled-in in GenericApp_Init().  Another way to go would be to fill
//  123 // in the structure here and make it a "const" (in code space).  The
//  124 // way it's defined in this sample app it is define in RAM.

        RSEG XDATA_Z:XDATA:NOROOT(0)
        DATA8
//  125 endPointDesc_t GenericApp_epDesc;     //节点描述符
GenericApp_epDesc:
        DS 6
        REQUIRE __INIT_XDATA_Z
//  126 

        RSEG XDATA_Z:XDATA:NOROOT(0)
        DATA8
//  127 byte GenericApp_TaskID;   // Task ID for internal task/event processing  //任务优先级ID
GenericApp_TaskID:
        DS 1
        REQUIRE __INIT_XDATA_Z
//  128                           // This variable will be received when
//  129                           // GenericApp_Init() is called.
//  130 
//  131 

        RSEG XDATA_Z:XDATA:NOROOT(0)
        DATA8
//  132 byte GenericApp_TransID;  // This is the unique message ID (counter)  数据发送序列号
GenericApp_TransID:
        DS 1
        REQUIRE __INIT_XDATA_Z
//  133 
//  134 /*********************************************************************
//  135  * LOCAL FUNCTIONS
//  136  */
//  137 
//  138 void GenericApp_MessageMSGCB( afIncomingMSGPacket_t *pckt );  //消息处理函数
//  139 void GenericApp_SendTheMessage( void );     //数据发送函数
//  140 
//  141 
//  142 /*********************************************************************
//  143  * @fn      GenericApp_Init
//  144  *
//  145  * @brief   Initialization function for the Generic App Task.
//  146  *          This is called during initialization and should contain
//  147  *          any application specific initialization (ie. hardware
//  148  *          initialization/setup, table initialization, power up
//  149  *          notificaiton ... ).
//  150  *
//  151  * @param   task_id - the ID assigned by OSAL.  This ID should be
//  152  *                    used to send messages and set timers.
//  153  *
//  154  * @return  none
//  155  */

        RSEG BANKED_CODE:CODE:NOROOT(0)
//  156 void GenericApp_Init( byte task_id )
GenericApp_Init:
        CFI Block cfiBlock0 Using cfiCommon0
        CFI Function GenericApp_Init
        CODE
//  157 { 
        FUNCALL GenericApp_Init, HalUARTWrite
        LOCFRAME ISTACK, 0, STACK
        LOCFRAME PSTACK, 0, STACK
        LOCFRAME XSTACK, 9, STACK
        LOCFRAME IOVERLAY, 0, STATIC
        LOCFRAME DOVERLAY, 0, STATIC
        ARGFRAME ISTACK, 0, STACK
        ARGFRAME PSTACK, 0, STACK
        ARGFRAME XSTACK, 9, STACK
        ARGFRAME IOVERLAY, 0, STATIC
        ARGFRAME DOVERLAY, 0, STATIC
        FUNCALL GenericApp_Init, afRegister
        LOCFRAME ISTACK, 0, STACK
        LOCFRAME PSTACK, 0, STACK
        LOCFRAME XSTACK, 9, STACK
        LOCFRAME IOVERLAY, 0, STATIC
        LOCFRAME DOVERLAY, 0, STATIC
        ARGFRAME ISTACK, 0, STACK
        ARGFRAME PSTACK, 0, STACK
        ARGFRAME XSTACK, 9, STACK
        ARGFRAME IOVERLAY, 0, STATIC
        ARGFRAME DOVERLAY, 0, STATIC
        MOV     A,#-0x9
        LCALL   ?BANKED_ENTER_XDATA
        CFI DPH0 load(1, XDATA, add(CFA_XSP16, literal(-1)))
        CFI DPL0 load(1, XDATA, add(CFA_XSP16, literal(-2)))
        CFI ?BRET_EXT load(1, XDATA, add(CFA_XSP16, literal(-3)))
        CFI ?RET_HIGH load(1, XDATA, add(CFA_XSP16, literal(-4)))
        CFI ?RET_LOW load(1, XDATA, add(CFA_XSP16, literal(-5)))
        CFI R7 load(1, XDATA, add(CFA_XSP16, literal(-6)))
        CFI V0 load(1, XDATA, add(CFA_XSP16, literal(-7)))
        CFI VB load(1, XDATA, add(CFA_XSP16, literal(-8)))
        CFI R6 load(1, XDATA, add(CFA_XSP16, literal(-9)))
        CFI CFA_SP SP+0
        CFI CFA_XSP16 add(XSP16, 9)
        ; Saved register size: 9
        ; Auto size: 0
        MOV     A,R1
//  158   GenericApp_TaskID = task_id;
        MOV     DPTR,#GenericApp_TaskID
        MOVX    @DPTR,A
//  159   GenericApp_TransID = 0;       //对发送序号初始化 0  
        MOV     DPTR,#GenericApp_TransID
        CLR     A
        MOVX    @DPTR,A
//  160   
//  161   HalUARTWrite(HAL_UART_PORT_0,"123", 3);
        ; Setup parameters for call to function HalUARTWrite
        MOV     R4,#0x3
        MOV     R5,A
        MOV     R2,#`?<Constant "123">` & 0xff
        MOV     R3,#(`?<Constant "123">` >> 8) & 0xff
        MOV     R1,A
        LCALL   ??HalUARTWrite?relay
//  162   
//  163   // Device hardware initialization can be added here or in main() (Zmain.c).
//  164   // If the hardware is application specific - add it here.
//  165   // If the hardware is other parts of the device add it in main().
//  166 
//  167   // Fill out the endpoint description.
//  168   GenericApp_epDesc.endPoint = GENERICAPP_ENDPOINT;
        MOV     DPTR,#GenericApp_epDesc
        MOV     A,#0xa
        MOVX    @DPTR,A
//  169   GenericApp_epDesc.task_id = &GenericApp_TaskID;
        INC     DPTR
        MOV     A,#GenericApp_TaskID & 0xff
        MOVX    @DPTR,A
        INC     DPTR
        MOV     A,#(GenericApp_TaskID >> 8) & 0xff
        MOVX    @DPTR,A
//  170   GenericApp_epDesc.simpleDesc
//  171             = (SimpleDescriptionFormat_t *)&GenericApp_SimpleDesc;
        INC     DPTR
        MOV     A,#GenericApp_SimpleDesc & 0xff
        MOVX    @DPTR,A
        INC     DPTR
        MOV     A,#(GenericApp_SimpleDesc >> 8) & 0xff
        MOVX    @DPTR,A
//  172   GenericApp_epDesc.latencyReq = noLatencyReqs;
        INC     DPTR
        CLR     A
        MOVX    @DPTR,A
//  173 
//  174   // Register the endpoint description with the AF
//  175   afRegister( &GenericApp_epDesc );
        ; Setup parameters for call to function afRegister
        MOV     R2,#GenericApp_epDesc & 0xff
        MOV     R3,#(GenericApp_epDesc >> 8) & 0xff
        LCALL   ??afRegister?relay
//  176 }
        MOV     R7,#0x1
        LJMP    ?BANKED_LEAVE_XDATA
        CFI EndBlock cfiBlock0
//  177 

        RSEG XDATA_Z:XDATA:NOROOT(0)
        DATA8
//  178 uint8 LEDFlag = 0;
LEDFlag:
        DS 1
        REQUIRE __INIT_XDATA_Z
//  179 /*********************************************************************
//  180  * @fn      GenericApp_ProcessEvent
//  181  *
//  182  * @brief   Generic Application Task event processor.  This function
//  183  *          is called to process all events for the task.  Events
//  184  *          include timers, messages and any other user defined events.
//  185  *
//  186  * @param   task_id  - The OSAL assigned task ID.
//  187  * @param   events - events to process.  This is a bit map and can
//  188  *                   contain more than one event.
//  189  *
//  190  * @return  none
//  191  */

        RSEG BANKED_CODE:CODE:NOROOT(0)
//  192 UINT16 GenericApp_ProcessEvent( byte task_id, UINT16 events )
GenericApp_ProcessEvent:
        CFI Block cfiBlock1 Using cfiCommon0
        CFI Function GenericApp_ProcessEvent
        CODE
//  193 {
        FUNCALL GenericApp_ProcessEvent, osal_msg_receive
        LOCFRAME ISTACK, 0, STACK
        LOCFRAME PSTACK, 0, STACK
        LOCFRAME XSTACK, 12, STACK
        LOCFRAME IOVERLAY, 0, STATIC
        LOCFRAME DOVERLAY, 0, STATIC
        ARGFRAME ISTACK, 0, STACK
        ARGFRAME PSTACK, 0, STACK
        ARGFRAME XSTACK, 12, STACK
        ARGFRAME IOVERLAY, 0, STATIC
        ARGFRAME DOVERLAY, 0, STATIC
        FUNCALL GenericApp_ProcessEvent, GenericApp_MessageMSGCB
        LOCFRAME ISTACK, 0, STACK
        LOCFRAME PSTACK, 0, STACK
        LOCFRAME XSTACK, 12, STACK
        LOCFRAME IOVERLAY, 0, STATIC
        LOCFRAME DOVERLAY, 0, STATIC
        ARGFRAME ISTACK, 0, STACK
        ARGFRAME PSTACK, 0, STACK
        ARGFRAME XSTACK, 12, STACK
        ARGFRAME IOVERLAY, 0, STATIC
        ARGFRAME DOVERLAY, 0, STATIC
        FUNCALL GenericApp_ProcessEvent, osal_msg_deallocate
        LOCFRAME ISTACK, 0, STACK
        LOCFRAME PSTACK, 0, STACK
        LOCFRAME XSTACK, 12, STACK
        LOCFRAME IOVERLAY, 0, STATIC
        LOCFRAME DOVERLAY, 0, STATIC
        ARGFRAME ISTACK, 0, STACK
        ARGFRAME PSTACK, 0, STACK
        ARGFRAME XSTACK, 12, STACK
        ARGFRAME IOVERLAY, 0, STATIC
        ARGFRAME DOVERLAY, 0, STATIC
        FUNCALL GenericApp_ProcessEvent, osal_msg_receive
        LOCFRAME ISTACK, 0, STACK
        LOCFRAME PSTACK, 0, STACK
        LOCFRAME XSTACK, 12, STACK
        LOCFRAME IOVERLAY, 0, STATIC
        LOCFRAME DOVERLAY, 0, STATIC
        ARGFRAME ISTACK, 0, STACK
        ARGFRAME PSTACK, 0, STACK
        ARGFRAME XSTACK, 12, STACK
        ARGFRAME IOVERLAY, 0, STATIC
        ARGFRAME DOVERLAY, 0, STATIC
        MOV     A,#-0xc
        LCALL   ?BANKED_ENTER_XDATA
        CFI DPH0 load(1, XDATA, add(CFA_XSP16, literal(-1)))
        CFI DPL0 load(1, XDATA, add(CFA_XSP16, literal(-2)))
        CFI ?BRET_EXT load(1, XDATA, add(CFA_XSP16, literal(-3)))
        CFI ?RET_HIGH load(1, XDATA, add(CFA_XSP16, literal(-4)))
        CFI ?RET_LOW load(1, XDATA, add(CFA_XSP16, literal(-5)))
        CFI R7 load(1, XDATA, add(CFA_XSP16, literal(-6)))
        CFI V3 load(1, XDATA, add(CFA_XSP16, literal(-7)))
        CFI V2 load(1, XDATA, add(CFA_XSP16, literal(-8)))
        CFI V1 load(1, XDATA, add(CFA_XSP16, literal(-9)))
        CFI V0 load(1, XDATA, add(CFA_XSP16, literal(-10)))
        CFI VB load(1, XDATA, add(CFA_XSP16, literal(-11)))
        CFI R6 load(1, XDATA, add(CFA_XSP16, literal(-12)))
        CFI CFA_SP SP+0
        CFI CFA_XSP16 add(XSP16, 12)
        ; Saved register size: 12
        ; Auto size: 0
        MOV     ?V0 + 0,R2
        MOV     ?V0 + 1,R3
//  194   afIncomingMSGPacket_t *MSGpkt;
//  195   
//  196   (void)task_id;  // Intentionally unreferenced parameter
//  197 
//  198   if ( events & SYS_EVENT_MSG )
        MOV     A,R3
        ANL     A,#0x80
        JZ      ??GenericApp_ProcessEvent_0
//  199   {
//  200     MSGpkt = (afIncomingMSGPacket_t *)osal_msg_receive( GenericApp_TaskID );
        ; Setup parameters for call to function osal_msg_receive
        SJMP    ??GenericApp_ProcessEvent_1
//  201     while ( MSGpkt )
//  202     {
//  203       switch ( MSGpkt->hdr.event )
??GenericApp_ProcessEvent_2:
        MOV     DPL,R6
        MOV     DPH,R7
        MOVX    A,@DPTR
        XRL     A,#0x1a
        JNZ     ??GenericApp_ProcessEvent_3
//  204       {
//  205         case AF_INCOMING_MSG_CMD:
//  206           GenericApp_MessageMSGCB( MSGpkt );  //对接收的数据处理 
        ; Setup parameters for call to function GenericApp_MessageMSGCB
        MOV     A,R6
        MOV     R2,A
        MOV     A,R7
        MOV     R3,A
        LCALL   ??GenericApp_MessageMSGCB?relay
//  207           break;
//  208 
//  209         default:
//  210           break;
//  211       }
//  212 
//  213       // Release the memory
//  214       osal_msg_deallocate( (uint8 *)MSGpkt );
??GenericApp_ProcessEvent_3:
        ; Setup parameters for call to function osal_msg_deallocate
        MOV     A,R6
        MOV     R2,A
        MOV     A,R7
        MOV     R3,A
        LCALL   ??osal_msg_deallocate?relay
//  215 
//  216       // Next
//  217       MSGpkt = (afIncomingMSGPacket_t *)osal_msg_receive( GenericApp_TaskID );
        ; Setup parameters for call to function osal_msg_receive
??GenericApp_ProcessEvent_1:
        MOV     DPTR,#GenericApp_TaskID
        MOVX    A,@DPTR
        MOV     R1,A
        LCALL   ??osal_msg_receive?relay
        MOV     ?V0 + 2,R2
        MOV     ?V0 + 3,R3
        MOV     R6,?V0 + 2
        MOV     R7,?V0 + 3
//  218     }
        MOV     A,R6
        ORL     A,R7
        JNZ     ??GenericApp_ProcessEvent_2
//  219 
//  220     // return unprocessed events
//  221     return (events ^ SYS_EVENT_MSG);
        MOV     R2,?V0 + 0
        MOV     A,?V0 + 1
        XRL     A,#0x80
        MOV     R3,A
        SJMP    ??GenericApp_ProcessEvent_4
//  222   }
//  223 
//  224   // Discard unknown events
//  225   return 0;
??GenericApp_ProcessEvent_0:
        MOV     R2,#0x0
        MOV     R3,#0x0
??GenericApp_ProcessEvent_4:
        MOV     R7,#0x4
        LJMP    ?BANKED_LEAVE_XDATA
        CFI EndBlock cfiBlock1
//  226 }
//  227 
//  228 
//  229 /*********************************************************************
//  230  * @fn      GenericApp_MessageMSGCB
//  231  *
//  232  * @brief   Data message processor callback.  This function processes
//  233  *          any incoming data - probably from other devices.  So, based
//  234  *          on cluster ID, perform the intended action.
//  235  *
//  236  * @param   none
//  237  *
//  238  * @return  none
//  239  */

        RSEG BANKED_CODE:CODE:NOROOT(0)
//  240 void GenericApp_MessageMSGCB( afIncomingMSGPacket_t *pkt )
GenericApp_MessageMSGCB:
        CFI Block cfiBlock2 Using cfiCommon0
        CFI Function GenericApp_MessageMSGCB
        CODE
//  241 {
        FUNCALL GenericApp_MessageMSGCB, HalUARTWrite
        LOCFRAME ISTACK, 2, STACK
        LOCFRAME PSTACK, 0, STACK
        LOCFRAME XSTACK, 0, STACK
        LOCFRAME IOVERLAY, 0, STATIC
        LOCFRAME DOVERLAY, 0, STATIC
        ARGFRAME ISTACK, 2, STACK
        ARGFRAME PSTACK, 0, STACK
        ARGFRAME XSTACK, 0, STACK
        ARGFRAME IOVERLAY, 0, STATIC
        ARGFRAME DOVERLAY, 0, STATIC
        PUSH    DPL
        CFI DPL0 Frame(CFA_SP, 4)
        CFI CFA_SP SP+-4
        PUSH    DPH
        CFI DPH0 Frame(CFA_SP, 5)
        CFI CFA_SP SP+-5
        ; Saved register size: 2
        ; Auto size: 0
//  242   
//  243   switch ( pkt->clusterId )  //数据包簇ID
        MOV     DPL,R2
        MOV     DPH,R3
        INC     DPTR
        INC     DPTR
        INC     DPTR
        INC     DPTR
        MOVX    A,@DPTR
        XRL     A,#0x1
        JNZ     ??GenericApp_MessageMSGCB_0
        INC     DPTR
        MOVX    A,@DPTR
??GenericApp_MessageMSGCB_0:
        JNZ     ??GenericApp_MessageMSGCB_1
//  244   {
//  245     case GENERICAPP_CLUSTERID:
//  246       
//  247     HalUARTWrite(0, pkt->cmd.Data, pkt->cmd.DataLength);
        ; Setup parameters for call to function HalUARTWrite
        MOV     A,R2
        ADD     A,#0x1f
        MOV     DPL,A
        MOV     A,R3
        ADDC    A,#0x0
        MOV     DPH,A
        MOVX    A,@DPTR
        MOV     R4,A
        INC     DPTR
        MOVX    A,@DPTR
        MOV     R5,A
        MOV     A,R2
        ADD     A,#0x21
        MOV     DPL,A
        MOV     A,R3
        ADDC    A,#0x0
        MOV     DPH,A
        MOVX    A,@DPTR
        MOV     R2,A
        INC     DPTR
        MOVX    A,@DPTR
        MOV     R3,A
        MOV     R1,#0x0
        LCALL   ??HalUARTWrite?relay
//  248  
//  249       break;
//  250   }
//  251 }
??GenericApp_MessageMSGCB_1:
        POP     DPH
        CFI DPH0 SameValue
        CFI CFA_SP SP+-4
        POP     DPL
        CFI DPL0 SameValue
        CFI CFA_SP SP+-3
        LJMP    ?BRET
        CFI EndBlock cfiBlock2
//  252 
//  253 
//  254 /*********************************************************************
//  255  * @fn      GenericApp_SendMessage
//  256  *
//  257  * @brief   Send "the" message.
//  258  *
//  259  * @param   none
//  260  *
//  261  * @return  none
//  262  */

        RSEG BANKED_CODE:CODE:NOROOT(0)
//  263 void SampleApp_SendMessage( uint8 * buf,uint8 SendLen )
SampleApp_SendMessage:
        CFI Block cfiBlock3 Using cfiCommon0
        CFI Function SampleApp_SendMessage
        CODE
//  264 {
        FUNCALL SampleApp_SendMessage, AF_DataRequest
        LOCFRAME ISTACK, 0, STACK
        LOCFRAME PSTACK, 0, STACK
        LOCFRAME XSTACK, 31, STACK
        LOCFRAME IOVERLAY, 0, STATIC
        LOCFRAME DOVERLAY, 0, STATIC
        ARGFRAME ISTACK, 0, STACK
        ARGFRAME PSTACK, 0, STACK
        ARGFRAME XSTACK, 31, STACK
        ARGFRAME IOVERLAY, 0, STATIC
        ARGFRAME DOVERLAY, 0, STATIC
        MOV     A,#-0xa
        LCALL   ?BANKED_ENTER_XDATA
        CFI DPH0 load(1, XDATA, add(CFA_XSP16, literal(-1)))
        CFI DPL0 load(1, XDATA, add(CFA_XSP16, literal(-2)))
        CFI ?BRET_EXT load(1, XDATA, add(CFA_XSP16, literal(-3)))
        CFI ?RET_HIGH load(1, XDATA, add(CFA_XSP16, literal(-4)))
        CFI ?RET_LOW load(1, XDATA, add(CFA_XSP16, literal(-5)))
        CFI R7 load(1, XDATA, add(CFA_XSP16, literal(-6)))
        CFI V1 load(1, XDATA, add(CFA_XSP16, literal(-7)))
        CFI V0 load(1, XDATA, add(CFA_XSP16, literal(-8)))
        CFI VB load(1, XDATA, add(CFA_XSP16, literal(-9)))
        CFI R6 load(1, XDATA, add(CFA_XSP16, literal(-10)))
        CFI CFA_SP SP+0
        CFI CFA_XSP16 add(XSP16, 10)
        ; Saved register size: 10
        ; Auto size: 12
        MOV     A,#-0xc
        LCALL   ?ALLOC_XSTACK8
        CFI CFA_XSP16 add(XSP16, 22)
        MOV     A,R1
        MOV     R6,A
//  265   afAddrType_t GenericApp_DstAddr;  //目标
//  266   
//  267   GenericApp_DstAddr.addrMode = (afAddrMode_t)Addr16Bit; //单播发送
        MOV     A,#0x8
        LCALL   ?XSTACK_DISP0_8
        MOV     A,#0x2
        MOVX    @DPTR,A
//  268   GenericApp_DstAddr.endPoint = GENERICAPP_ENDPOINT;
        MOV     A,#0x9
        LCALL   ?XSTACK_DISP0_8
        MOV     A,#0xa
        MOVX    @DPTR,A
//  269   GenericApp_DstAddr.addr.shortAddr = 0xFFFF;  //协调器的网络地址（定死的）
        MOV     DPL,?XSP + 0
        MOV     DPH,?XSP + 1
        MOV     A,#-0x1
        MOVX    @DPTR,A
        INC     DPTR
        MOVX    @DPTR,A
//  270   
//  271   if ( AF_DataRequest( &GenericApp_DstAddr, &GenericApp_epDesc,
//  272                        GENERICAPP_CLUSTERID,
//  273                        SendLen,
//  274                        buf,
//  275                        &GenericApp_TransID,
//  276                        AF_DISCV_ROUTE, AF_DEFAULT_RADIUS ) == afStatus_SUCCESS )
        ; Setup parameters for call to function AF_DataRequest
        MOV     ?V0 + 0,#0x1e
        MOV     R0,#?V0 + 0
        LCALL   ?PUSH_XSTACK_I_ONE
        CFI CFA_XSP16 add(XSP16, 23)
        MOV     ?V0 + 0,#GenericApp_TransID & 0xff
        MOV     ?V0 + 1,#(GenericApp_TransID >> 8) & 0xff
        MOV     R0,#?V0 + 0
        LCALL   ?PUSH_XSTACK_I_TWO
        CFI CFA_XSP16 add(XSP16, 25)
        MOV     ?V0 + 0,R2
        MOV     ?V0 + 1,R3
        MOV     R0,#?V0 + 0
        LCALL   ?PUSH_XSTACK_I_TWO
        CFI CFA_XSP16 add(XSP16, 27)
        MOV     ?V0 + 0,R6
        MOV     ?V0 + 1,#0x0
        MOV     R0,#?V0 + 0
        LCALL   ?PUSH_XSTACK_I_TWO
        CFI CFA_XSP16 add(XSP16, 29)
        MOV     ?V0 + 0,#0x1
        MOV     R0,#?V0 + 0
        LCALL   ?PUSH_XSTACK_I_TWO
        CFI CFA_XSP16 add(XSP16, 31)
        MOV     R1,#0x20
        MOV     R4,#GenericApp_epDesc & 0xff
        MOV     R5,#(GenericApp_epDesc >> 8) & 0xff
        MOV     A,#0x9
        LCALL   ?XSTACK_DISP0_8
        MOV     R2,DPL
        MOV     R3,DPH
        LCALL   ??AF_DataRequest?relay
        MOV     A,#0x9
        LCALL   ?DEALLOC_XSTACK8
        CFI CFA_XSP16 add(XSP16, 22)
//  277   {
//  278     // Successfully requested to be sent.
//  279     
//  280     
//  281   }
//  282   else
//  283   {
//  284     // Error occurred in request to send.
//  285   }
//  286 }
        MOV     A,#0xc
        LCALL   ?DEALLOC_XSTACK8
        CFI CFA_XSP16 add(XSP16, 10)
        MOV     R7,#0x2
        LJMP    ?BANKED_LEAVE_XDATA
        CFI EndBlock cfiBlock3

        RSEG BANK_RELAYS:CODE:REORDER:NOROOT(0)
??GenericApp_Init?relay:
        LCALL   ?BDISPATCH
        DATA
        DC24    GenericApp_Init

        RSEG BANK_RELAYS:CODE:REORDER:NOROOT(0)
??GenericApp_ProcessEvent?relay:
        LCALL   ?BDISPATCH
        DATA
        DC24    GenericApp_ProcessEvent

        RSEG BANK_RELAYS:CODE:REORDER:NOROOT(0)
??GenericApp_MessageMSGCB?relay:
        LCALL   ?BDISPATCH
        DATA
        DC24    GenericApp_MessageMSGCB

        RSEG BANK_RELAYS:CODE:REORDER:NOROOT(0)
??SampleApp_SendMessage?relay:
        LCALL   ?BDISPATCH
        DATA
        DC24    SampleApp_SendMessage

        RSEG XDATA_ROM_C:CONST:REORDER:NOROOT(0)
        DATA32
`?<Constant "123">`:
        DB "123"

        END
//  287 
// 
// 321 bytes in segment BANKED_CODE
//  24 bytes in segment BANK_RELAYS
//  18 bytes in segment XDATA_ROM_C
//   9 bytes in segment XDATA_Z
// 
// 345 bytes of CODE  memory
//  18 bytes of CONST memory
//   9 bytes of XDATA memory
//
//Errors: none
//Warnings: none
